SF:/home/rute/projgit/ssh-manager/sshm/src/app.rs
FN:75,_RNvMNtCsgnCEBF9lLaH_4sshm3appNtB2_11InputBuffer15from_connection
FN:66,_RNvMNtCsgnCEBF9lLaH_4sshm3appNtB2_11InputBuffer5clear
FN:607,_RNvMs0_NtCsgnCEBF9lLaH_4sshm3appNtB5_3App13update_filter
FN:503,_RNvMs0_NtCsgnCEBF9lLaH_4sshm3appNtB5_3App15save_connection
FN:443,_RNvMs0_NtCsgnCEBF9lLaH_4sshm3appNtB5_3App17append_input_char
FN:548,_RNvMs0_NtCsgnCEBF9lLaH_4sshm3appNtB5_3App17delete_connection
FN:465,_RNvMs0_NtCsgnCEBF9lLaH_4sshm3appNtB5_3App17delete_input_char
FN:459,_RNvMs0_NtCsgnCEBF9lLaH_4sshm3appNtB5_3App19advance_input_field
FN:491,_RNvMs0_NtCsgnCEBF9lLaH_4sshm3appNtB5_3App23get_current_input_field
FN:110,_RNvMs0_NtCsgnCEBF9lLaH_4sshm3appNtB5_3App3new
FN:88,_RNvXs_NtCsgnCEBF9lLaH_4sshm3appNtB4_3AppNtNtCs4kUJL3MZFFz_4core7default7Default7default
FN:1032,_RNvNtNtCsgnCEBF9lLaH_4sshm3app5tests15create_test_app
FN:1079,_RNvNtNtCsgnCEBF9lLaH_4sshm3app5testss_12test_app_new
FN:1328,_RNvNtNtCsgnCEBF9lLaH_4sshm3app5testss_19test_add_connection
FN:1923,_RNvNtNtCsgnCEBF9lLaH_4sshm3app5testss_21test_app_mode_is_copy
FN:1998,_RNvNtNtCsgnCEBF9lLaH_4sshm3app5testss_21test_matcher_creation
FN:1608,_RNvNtNtCsgnCEBF9lLaH_4sshm3app5testss_21test_message_handling
FN:1960,_RNvNtNtCsgnCEBF9lLaH_4sshm3app5testss_21test_search_query_pop
FN:1368,_RNvNtNtCsgnCEBF9lLaH_4sshm3app5testss_22test_app_mode_variants
FN:1153,_RNvNtNtCsgnCEBF9lLaH_4sshm3app5testss_22test_append_input_char
FN:1345,_RNvNtNtCsgnCEBF9lLaH_4sshm3app5testss_22test_delete_connection
FN:1196,_RNvNtNtCsgnCEBF9lLaH_4sshm3app5testss_22test_delete_input_char
FN:1659,_RNvNtNtCsgnCEBF9lLaH_4sshm3app5testss_23test_app_initialization
FN:1088,_RNvNtNtCsgnCEBF9lLaH_4sshm3app5testss_23test_input_buffer_clear
FN:1668,_RNvNtNtCsgnCEBF9lLaH_4sshm3app5testss_23test_input_buffer_clone
FN:1412,_RNvNtNtCsgnCEBF9lLaH_4sshm3app5testss_23test_input_field_bounds
FN:1988,_RNvNtNtCsgnCEBF9lLaH_4sshm3app5testss_23test_search_query_clear
FN:1209,_RNvNtNtCsgnCEBF9lLaH_4sshm3app5testss_24test_advance_input_field
FN:1497,_RNvNtNtCsgnCEBF9lLaH_4sshm3app5testss_25test_app_mode_transitions
FN:1911,_RNvNtNtCsgnCEBF9lLaH_4sshm3app5testss_25test_input_buffer_default
FN:1519,_RNvNtNtCsgnCEBF9lLaH_4sshm3app5testss_25test_search_query_default
FN:1680,_RNvNtNtCsgnCEBF9lLaH_4sshm3app5testss_26test_app_with_empty_config
FN:2043,_RNvNtNtCsgnCEBF9lLaH_4sshm3app5testss_26test_matcher_empty_pattern
FN:2025,_RNvNtNtCsgnCEBF9lLaH_4sshm3app5testss_26test_matcher_partial_match
FN:1390,_RNvNtNtCsgnCEBF9lLaH_4sshm3app5testss_26test_multiple_input_fields
FN:1525,_RNvNtNtCsgnCEBF9lLaH_4sshm3app5testss_26test_selected_index_bounds
FN:1277,_RNvNtNtCsgnCEBF9lLaH_4sshm3app5testss_26test_update_filter_by_host
FN:1287,_RNvNtNtCsgnCEBF9lLaH_4sshm3app5testss_26test_update_filter_by_user
FN:1432,_RNvNtNtCsgnCEBF9lLaH_4sshm3app5testss_27test_delete_char_from_field
FN:1588,_RNvNtNtCsgnCEBF9lLaH_4sshm3app5testss_27test_delete_connection_last
FN:1950,_RNvNtNtCsgnCEBF9lLaH_4sshm3app5testss_27test_search_query_appending
FN:1267,_RNvNtNtCsgnCEBF9lLaH_4sshm3app5testss_27test_update_filter_by_alias
FN:1307,_RNvNtNtCsgnCEBF9lLaH_4sshm3app5testss_27test_update_filter_no_match
FN:1577,_RNvNtNtCsgnCEBF9lLaH_4sshm3app5testss_28test_delete_connection_first
FN:1234,_RNvNtNtCsgnCEBF9lLaH_4sshm3app5testss_28test_get_current_input_field
FN:1619,_RNvNtNtCsgnCEBF9lLaH_4sshm3app5testss_28test_input_buffer_all_fields
FN:1979,_RNvNtNtCsgnCEBF9lLaH_4sshm3app5testss_28test_search_query_assignment
FN:1649,_RNvNtNtCsgnCEBF9lLaH_4sshm3app5testss_28test_update_filter_all_match
FN:1705,_RNvNtNtCsgnCEBF9lLaH_4sshm3app5testss_29test_delete_connection_middle
FN:1836,_RNvNtNtCsgnCEBF9lLaH_4sshm3app5testss_29test_filtered_indices_cloning
FN:1970,_RNvNtNtCsgnCEBF9lLaH_4sshm3app5testss_29test_filtered_indices_sorting
FN:1536,_RNvNtNtCsgnCEBF9lLaH_4sshm3app5testss_29test_save_connection_add_mode
FN:1859,_RNvNtNtCsgnCEBF9lLaH_4sshm3app5testss_29test_search_query_with_spaces
FN:2034,_RNvNtNtCsgnCEBF9lLaH_4sshm3app5testss_30test_matcher_different_strings
FN:2016,_RNvNtNtCsgnCEBF9lLaH_4sshm3app5testss_30test_matcher_none_for_no_match
FN:1556,_RNvNtNtCsgnCEBF9lLaH_4sshm3app5testss_30test_save_connection_edit_mode
FN:1257,_RNvNtNtCsgnCEBF9lLaH_4sshm3app5testss_30test_update_filter_empty_query
FN:1940,_RNvNtNtCsgnCEBF9lLaH_4sshm3app5testss_30test_update_filter_exact_match
FN:2052,_RNvNtNtCsgnCEBF9lLaH_4sshm3app5testss_31test_matcher_whole_string_match
FN:1317,_RNvNtNtCsgnCEBF9lLaH_4sshm3app5testss_31test_update_filter_bounds_check
FN:1695,_RNvNtNtCsgnCEBF9lLaH_4sshm3app5testss_31test_update_filter_with_numbers
FN:2007,_RNvNtNtCsgnCEBF9lLaH_4sshm3app5testss_32test_fuzzy_matcher_returns_score
FN:1297,_RNvNtNtCsgnCEBF9lLaH_4sshm3app5testss_32test_update_filter_partial_match
FN:1867,_RNvNtNtCsgnCEBF9lLaH_4sshm3app5testss_32test_update_filter_unicode_chars
FN:1782,_RNvNtNtCsgnCEBF9lLaH_4sshm3app5testss_33test_append_char_different_fields
FN:1844,_RNvNtNtCsgnCEBF9lLaH_4sshm3app5testss_33test_config_connections_reference
FN:1801,_RNvNtNtCsgnCEBF9lLaH_4sshm3app5testss_33test_delete_char_different_fields
FN:1422,_RNvNtNtCsgnCEBF9lLaH_4sshm3app5testss_33test_delete_char_from_empty_field
FN:1599,_RNvNtNtCsgnCEBF9lLaH_4sshm3app5testss_33test_delete_connection_empty_list
FN:1109,_RNvNtNtCsgnCEBF9lLaH_4sshm3app5testss_33test_input_buffer_from_connection
FN:1485,_RNvNtNtCsgnCEBF9lLaH_4sshm3app5testss_33test_search_query_clear_on_escape
FN:1638,_RNvNtNtCsgnCEBF9lLaH_4sshm3app5testss_34test_update_filter_preserves_order
FN:1824,_RNvNtNtCsgnCEBF9lLaH_4sshm3app5testss_35test_delete_connection_after_filter
FN:1931,_RNvNtNtCsgnCEBF9lLaH_4sshm3app5testss_35test_delete_connection_index_bounds
FN:1898,_RNvNtNtCsgnCEBF9lLaH_4sshm3app5testss_35test_delete_input_char_folder_field
FN:1513,_RNvNtNtCsgnCEBF9lLaH_4sshm3app5testss_35test_filtered_indices_initial_state
FN:1716,_RNvNtNtCsgnCEBF9lLaH_4sshm3app5testss_36test_save_connection_with_all_fields
FN:1355,_RNvNtNtCsgnCEBF9lLaH_4sshm3app5testss_37test_delete_connection_updates_filter
FN:1885,_RNvNtNtCsgnCEBF9lLaH_4sshm3app5testss_37test_delete_input_char_key_path_field
FN:1687,_RNvNtNtCsgnCEBF9lLaH_4sshm3app5testss_37test_update_filter_with_special_chars
FN:1173,_RNvNtNtCsgnCEBF9lLaH_4sshm3app5testss_39test_append_input_char_port_only_digits
FN:1875,_RNvNtNtCsgnCEBF9lLaH_4sshm3app5testss_39test_get_current_input_field_all_fields
FN:1454,_RNvNtNtCsgnCEBF9lLaH_4sshm3app5testss_40test_update_filter_with_case_insensitive
FN:1131,_RNvNtNtCsgnCEBF9lLaH_4sshm3app5testss_42test_input_buffer_from_connection_defaults
FN:1474,_RNvNtNtCsgnCEBF9lLaH_4sshm3app5testss_42test_update_filter_resets_index_when_empty
FN:1443,_RNvNtNtCsgnCEBF9lLaH_4sshm3app5testss_43test_delete_char_advances_to_previous_field
FN:1464,_RNvNtNtCsgnCEBF9lLaH_4sshm3app5testss_43test_update_filter_with_folder_not_searched
FN:1771,_RNvNtNtCsgnCEBF9lLaH_4sshm3app5testss_44test_advance_input_field_does_not_exceed_max
FN:1376,_RNvNtNtCsgnCEBF9lLaH_4sshm3app5testss_45test_filtered_indices_maintained_after_search
FN:1741,_RNvNtNtCsgnCEBF9lLaH_4sshm3app5testss_49test_save_connection_with_empty_port_uses_default
FN:1761,_RNvNtNtCsgnCEBF9lLaH_4sshm3app5testss_50test_delete_connection_updates_filter_after_delete
FN:720,_RNCNvMs0_NtCsgnCEBF9lLaH_4sshm3appNtB7_3App11render_list0B9_
FN:144,_RNCNvMs0_NtCsgnCEBF9lLaH_4sshm3appNtB7_3App12show_message0B9_
FN:426,_RNCNvMs0_NtCsgnCEBF9lLaH_4sshm3appNtB7_3App16handle_help_mode0B9_
FN:342,_RNCNvMs0_NtCsgnCEBF9lLaH_4sshm3appNtB7_3App17handle_input_mode0B9_
FN:393,_RNCNvMs0_NtCsgnCEBF9lLaH_4sshm3appNtB7_3App18handle_search_mode0B9_
FN:954,_RNCNvMs0_NtCsgnCEBF9lLaH_4sshm3appNtB7_3App18handle_update_mode0B9_
FN:119,_RNCNvMs0_NtCsgnCEBF9lLaH_4sshm3appNtB7_3App3run0B9_
FN:976,_RNvMs0_NtCsgnCEBF9lLaH_4sshm3appNtB5_3App11render_help
FN:691,_RNvMs0_NtCsgnCEBF9lLaH_4sshm3appNtB5_3App11render_list
FN:785,_RNvMs0_NtCsgnCEBF9lLaH_4sshm3appNtB5_3App12render_input
FN:194,_RNvMs0_NtCsgnCEBF9lLaH_4sshm3appNtB5_3App12render_popup
FN:142,_RNvMs0_NtCsgnCEBF9lLaH_4sshm3appNtB5_3App12show_message
FN:174,_RNvMs0_NtCsgnCEBF9lLaH_4sshm3appNtB5_3App13centered_rect
FN:763,_RNvMs0_NtCsgnCEBF9lLaH_4sshm3appNtB5_3App13render_footer
FN:662,_RNvMs0_NtCsgnCEBF9lLaH_4sshm3appNtB5_3App13render_header
FN:865,_RNvMs0_NtCsgnCEBF9lLaH_4sshm3appNtB5_3App13render_search
FN:587,_RNvMs0_NtCsgnCEBF9lLaH_4sshm3appNtB5_3App16check_for_update
FN:424,_RNvMs0_NtCsgnCEBF9lLaH_4sshm3appNtB5_3App16handle_help_mode
FN:340,_RNvMs0_NtCsgnCEBF9lLaH_4sshm3appNtB5_3App17handle_input_mode
FN:884,_RNvMs0_NtCsgnCEBF9lLaH_4sshm3appNtB5_3App17render_search_bar
FN:208,_RNvMs0_NtCsgnCEBF9lLaH_4sshm3appNtB5_3App18handle_normal_mode
FN:391,_RNvMs0_NtCsgnCEBF9lLaH_4sshm3appNtB5_3App18handle_search_mode
FN:952,_RNvMs0_NtCsgnCEBF9lLaH_4sshm3appNtB5_3App18handle_update_mode
FN:569,_RNvMs0_NtCsgnCEBF9lLaH_4sshm3appNtB5_3App18import_connections
FN:915,_RNvMs0_NtCsgnCEBF9lLaH_4sshm3appNtB5_3App19render_update_popup
FN:114,_RNvMs0_NtCsgnCEBF9lLaH_4sshm3appNtB5_3App3run
FN:635,_RNvMs0_NtCsgnCEBF9lLaH_4sshm3appNtB5_3App6render
FN:579,_RNvMs0_NtCsgnCEBF9lLaH_4sshm3appNtB5_3App7connect
FN:616,_RNCNvMs0_NtCsgnCEBF9lLaH_4sshm3appNtB7_3App13update_filter0B9_
FN:510,_RNCNvMs0_NtCsgnCEBF9lLaH_4sshm3appNtB7_3App15save_connection0B9_
FN:511,_RNCNvMs0_NtCsgnCEBF9lLaH_4sshm3appNtB7_3App15save_connections_0B9_
FN:552,_RNCNvMs0_NtCsgnCEBF9lLaH_4sshm3appNtB7_3App17delete_connection0B9_
FN:553,_RNCNvMs0_NtCsgnCEBF9lLaH_4sshm3appNtB7_3App17delete_connections_0B9_
FNDA:2,_RNvMNtCsgnCEBF9lLaH_4sshm3appNtB2_11InputBuffer15from_connection
FNDA:9,_RNvMNtCsgnCEBF9lLaH_4sshm3appNtB2_11InputBuffer5clear
FNDA:35,_RNvMs0_NtCsgnCEBF9lLaH_4sshm3appNtB5_3App13update_filter
FNDA:5,_RNvMs0_NtCsgnCEBF9lLaH_4sshm3appNtB5_3App15save_connection
FNDA:21,_RNvMs0_NtCsgnCEBF9lLaH_4sshm3appNtB5_3App17append_input_char
FNDA:9,_RNvMs0_NtCsgnCEBF9lLaH_4sshm3appNtB5_3App17delete_connection
FNDA:10,_RNvMs0_NtCsgnCEBF9lLaH_4sshm3appNtB5_3App17delete_input_char
FNDA:37,_RNvMs0_NtCsgnCEBF9lLaH_4sshm3appNtB5_3App19advance_input_field
FNDA:12,_RNvMs0_NtCsgnCEBF9lLaH_4sshm3appNtB5_3App23get_current_input_field
FNDA:3,_RNvMs0_NtCsgnCEBF9lLaH_4sshm3appNtB5_3App3new
FNDA:3,_RNvXs_NtCsgnCEBF9lLaH_4sshm3appNtB4_3AppNtNtCs4kUJL3MZFFz_4core7default7Default7default
FNDA:61,_RNvNtNtCsgnCEBF9lLaH_4sshm3app5tests15create_test_app
FNDA:1,_RNvNtNtCsgnCEBF9lLaH_4sshm3app5testss_12test_app_new
FNDA:1,_RNvNtNtCsgnCEBF9lLaH_4sshm3app5testss_19test_add_connection
FNDA:1,_RNvNtNtCsgnCEBF9lLaH_4sshm3app5testss_21test_app_mode_is_copy
FNDA:1,_RNvNtNtCsgnCEBF9lLaH_4sshm3app5testss_21test_matcher_creation
FNDA:1,_RNvNtNtCsgnCEBF9lLaH_4sshm3app5testss_21test_message_handling
FNDA:1,_RNvNtNtCsgnCEBF9lLaH_4sshm3app5testss_21test_search_query_pop
FNDA:1,_RNvNtNtCsgnCEBF9lLaH_4sshm3app5testss_22test_app_mode_variants
FNDA:1,_RNvNtNtCsgnCEBF9lLaH_4sshm3app5testss_22test_append_input_char
FNDA:1,_RNvNtNtCsgnCEBF9lLaH_4sshm3app5testss_22test_delete_connection
FNDA:1,_RNvNtNtCsgnCEBF9lLaH_4sshm3app5testss_22test_delete_input_char
FNDA:1,_RNvNtNtCsgnCEBF9lLaH_4sshm3app5testss_23test_app_initialization
FNDA:1,_RNvNtNtCsgnCEBF9lLaH_4sshm3app5testss_23test_input_buffer_clear
FNDA:1,_RNvNtNtCsgnCEBF9lLaH_4sshm3app5testss_23test_input_buffer_clone
FNDA:1,_RNvNtNtCsgnCEBF9lLaH_4sshm3app5testss_23test_input_field_bounds
FNDA:1,_RNvNtNtCsgnCEBF9lLaH_4sshm3app5testss_23test_search_query_clear
FNDA:1,_RNvNtNtCsgnCEBF9lLaH_4sshm3app5testss_24test_advance_input_field
FNDA:1,_RNvNtNtCsgnCEBF9lLaH_4sshm3app5testss_25test_app_mode_transitions
FNDA:1,_RNvNtNtCsgnCEBF9lLaH_4sshm3app5testss_25test_input_buffer_default
FNDA:1,_RNvNtNtCsgnCEBF9lLaH_4sshm3app5testss_25test_search_query_default
FNDA:1,_RNvNtNtCsgnCEBF9lLaH_4sshm3app5testss_26test_app_with_empty_config
FNDA:1,_RNvNtNtCsgnCEBF9lLaH_4sshm3app5testss_26test_matcher_empty_pattern
FNDA:1,_RNvNtNtCsgnCEBF9lLaH_4sshm3app5testss_26test_matcher_partial_match
FNDA:1,_RNvNtNtCsgnCEBF9lLaH_4sshm3app5testss_26test_multiple_input_fields
FNDA:1,_RNvNtNtCsgnCEBF9lLaH_4sshm3app5testss_26test_selected_index_bounds
FNDA:1,_RNvNtNtCsgnCEBF9lLaH_4sshm3app5testss_26test_update_filter_by_host
FNDA:1,_RNvNtNtCsgnCEBF9lLaH_4sshm3app5testss_26test_update_filter_by_user
FNDA:1,_RNvNtNtCsgnCEBF9lLaH_4sshm3app5testss_27test_delete_char_from_field
FNDA:1,_RNvNtNtCsgnCEBF9lLaH_4sshm3app5testss_27test_delete_connection_last
FNDA:1,_RNvNtNtCsgnCEBF9lLaH_4sshm3app5testss_27test_search_query_appending
FNDA:1,_RNvNtNtCsgnCEBF9lLaH_4sshm3app5testss_27test_update_filter_by_alias
FNDA:1,_RNvNtNtCsgnCEBF9lLaH_4sshm3app5testss_27test_update_filter_no_match
FNDA:1,_RNvNtNtCsgnCEBF9lLaH_4sshm3app5testss_28test_delete_connection_first
FNDA:1,_RNvNtNtCsgnCEBF9lLaH_4sshm3app5testss_28test_get_current_input_field
FNDA:1,_RNvNtNtCsgnCEBF9lLaH_4sshm3app5testss_28test_input_buffer_all_fields
FNDA:1,_RNvNtNtCsgnCEBF9lLaH_4sshm3app5testss_28test_search_query_assignment
FNDA:1,_RNvNtNtCsgnCEBF9lLaH_4sshm3app5testss_28test_update_filter_all_match
FNDA:1,_RNvNtNtCsgnCEBF9lLaH_4sshm3app5testss_29test_delete_connection_middle
FNDA:1,_RNvNtNtCsgnCEBF9lLaH_4sshm3app5testss_29test_filtered_indices_cloning
FNDA:1,_RNvNtNtCsgnCEBF9lLaH_4sshm3app5testss_29test_filtered_indices_sorting
FNDA:1,_RNvNtNtCsgnCEBF9lLaH_4sshm3app5testss_29test_save_connection_add_mode
FNDA:1,_RNvNtNtCsgnCEBF9lLaH_4sshm3app5testss_29test_search_query_with_spaces
FNDA:1,_RNvNtNtCsgnCEBF9lLaH_4sshm3app5testss_30test_matcher_different_strings
FNDA:1,_RNvNtNtCsgnCEBF9lLaH_4sshm3app5testss_30test_matcher_none_for_no_match
FNDA:1,_RNvNtNtCsgnCEBF9lLaH_4sshm3app5testss_30test_save_connection_edit_mode
FNDA:1,_RNvNtNtCsgnCEBF9lLaH_4sshm3app5testss_30test_update_filter_empty_query
FNDA:1,_RNvNtNtCsgnCEBF9lLaH_4sshm3app5testss_30test_update_filter_exact_match
FNDA:1,_RNvNtNtCsgnCEBF9lLaH_4sshm3app5testss_31test_matcher_whole_string_match
FNDA:1,_RNvNtNtCsgnCEBF9lLaH_4sshm3app5testss_31test_update_filter_bounds_check
FNDA:1,_RNvNtNtCsgnCEBF9lLaH_4sshm3app5testss_31test_update_filter_with_numbers
FNDA:1,_RNvNtNtCsgnCEBF9lLaH_4sshm3app5testss_32test_fuzzy_matcher_returns_score
FNDA:1,_RNvNtNtCsgnCEBF9lLaH_4sshm3app5testss_32test_update_filter_partial_match
FNDA:1,_RNvNtNtCsgnCEBF9lLaH_4sshm3app5testss_32test_update_filter_unicode_chars
FNDA:1,_RNvNtNtCsgnCEBF9lLaH_4sshm3app5testss_33test_append_char_different_fields
FNDA:1,_RNvNtNtCsgnCEBF9lLaH_4sshm3app5testss_33test_config_connections_reference
FNDA:1,_RNvNtNtCsgnCEBF9lLaH_4sshm3app5testss_33test_delete_char_different_fields
FNDA:1,_RNvNtNtCsgnCEBF9lLaH_4sshm3app5testss_33test_delete_char_from_empty_field
FNDA:1,_RNvNtNtCsgnCEBF9lLaH_4sshm3app5testss_33test_delete_connection_empty_list
FNDA:1,_RNvNtNtCsgnCEBF9lLaH_4sshm3app5testss_33test_input_buffer_from_connection
FNDA:1,_RNvNtNtCsgnCEBF9lLaH_4sshm3app5testss_33test_search_query_clear_on_escape
FNDA:1,_RNvNtNtCsgnCEBF9lLaH_4sshm3app5testss_34test_update_filter_preserves_order
FNDA:1,_RNvNtNtCsgnCEBF9lLaH_4sshm3app5testss_35test_delete_connection_after_filter
FNDA:1,_RNvNtNtCsgnCEBF9lLaH_4sshm3app5testss_35test_delete_connection_index_bounds
FNDA:1,_RNvNtNtCsgnCEBF9lLaH_4sshm3app5testss_35test_delete_input_char_folder_field
FNDA:1,_RNvNtNtCsgnCEBF9lLaH_4sshm3app5testss_35test_filtered_indices_initial_state
FNDA:1,_RNvNtNtCsgnCEBF9lLaH_4sshm3app5testss_36test_save_connection_with_all_fields
FNDA:1,_RNvNtNtCsgnCEBF9lLaH_4sshm3app5testss_37test_delete_connection_updates_filter
FNDA:1,_RNvNtNtCsgnCEBF9lLaH_4sshm3app5testss_37test_delete_input_char_key_path_field
FNDA:1,_RNvNtNtCsgnCEBF9lLaH_4sshm3app5testss_37test_update_filter_with_special_chars
FNDA:1,_RNvNtNtCsgnCEBF9lLaH_4sshm3app5testss_39test_append_input_char_port_only_digits
FNDA:1,_RNvNtNtCsgnCEBF9lLaH_4sshm3app5testss_39test_get_current_input_field_all_fields
FNDA:1,_RNvNtNtCsgnCEBF9lLaH_4sshm3app5testss_40test_update_filter_with_case_insensitive
FNDA:1,_RNvNtNtCsgnCEBF9lLaH_4sshm3app5testss_42test_input_buffer_from_connection_defaults
FNDA:1,_RNvNtNtCsgnCEBF9lLaH_4sshm3app5testss_42test_update_filter_resets_index_when_empty
FNDA:1,_RNvNtNtCsgnCEBF9lLaH_4sshm3app5testss_43test_delete_char_advances_to_previous_field
FNDA:1,_RNvNtNtCsgnCEBF9lLaH_4sshm3app5testss_43test_update_filter_with_folder_not_searched
FNDA:1,_RNvNtNtCsgnCEBF9lLaH_4sshm3app5testss_44test_advance_input_field_does_not_exceed_max
FNDA:1,_RNvNtNtCsgnCEBF9lLaH_4sshm3app5testss_45test_filtered_indices_maintained_after_search
FNDA:1,_RNvNtNtCsgnCEBF9lLaH_4sshm3app5testss_49test_save_connection_with_empty_port_uses_default
FNDA:1,_RNvNtNtCsgnCEBF9lLaH_4sshm3app5testss_50test_delete_connection_updates_filter_after_delete
FNDA:0,_RNCNvMs0_NtCsgnCEBF9lLaH_4sshm3appNtB7_3App11render_list0B9_
FNDA:0,_RNCNvMs0_NtCsgnCEBF9lLaH_4sshm3appNtB7_3App12show_message0B9_
FNDA:0,_RNCNvMs0_NtCsgnCEBF9lLaH_4sshm3appNtB7_3App16handle_help_mode0B9_
FNDA:0,_RNCNvMs0_NtCsgnCEBF9lLaH_4sshm3appNtB7_3App17handle_input_mode0B9_
FNDA:0,_RNCNvMs0_NtCsgnCEBF9lLaH_4sshm3appNtB7_3App18handle_search_mode0B9_
FNDA:0,_RNCNvMs0_NtCsgnCEBF9lLaH_4sshm3appNtB7_3App18handle_update_mode0B9_
FNDA:0,_RNCNvMs0_NtCsgnCEBF9lLaH_4sshm3appNtB7_3App3run0B9_
FNDA:0,_RNvMs0_NtCsgnCEBF9lLaH_4sshm3appNtB5_3App11render_help
FNDA:0,_RNvMs0_NtCsgnCEBF9lLaH_4sshm3appNtB5_3App11render_list
FNDA:0,_RNvMs0_NtCsgnCEBF9lLaH_4sshm3appNtB5_3App12render_input
FNDA:0,_RNvMs0_NtCsgnCEBF9lLaH_4sshm3appNtB5_3App12render_popup
FNDA:0,_RNvMs0_NtCsgnCEBF9lLaH_4sshm3appNtB5_3App12show_message
FNDA:0,_RNvMs0_NtCsgnCEBF9lLaH_4sshm3appNtB5_3App13centered_rect
FNDA:0,_RNvMs0_NtCsgnCEBF9lLaH_4sshm3appNtB5_3App13render_footer
FNDA:0,_RNvMs0_NtCsgnCEBF9lLaH_4sshm3appNtB5_3App13render_header
FNDA:0,_RNvMs0_NtCsgnCEBF9lLaH_4sshm3appNtB5_3App13render_search
FNDA:0,_RNvMs0_NtCsgnCEBF9lLaH_4sshm3appNtB5_3App16check_for_update
FNDA:0,_RNvMs0_NtCsgnCEBF9lLaH_4sshm3appNtB5_3App16handle_help_mode
FNDA:0,_RNvMs0_NtCsgnCEBF9lLaH_4sshm3appNtB5_3App17handle_input_mode
FNDA:0,_RNvMs0_NtCsgnCEBF9lLaH_4sshm3appNtB5_3App17render_search_bar
FNDA:0,_RNvMs0_NtCsgnCEBF9lLaH_4sshm3appNtB5_3App18handle_normal_mode
FNDA:0,_RNvMs0_NtCsgnCEBF9lLaH_4sshm3appNtB5_3App18handle_search_mode
FNDA:0,_RNvMs0_NtCsgnCEBF9lLaH_4sshm3appNtB5_3App18handle_update_mode
FNDA:0,_RNvMs0_NtCsgnCEBF9lLaH_4sshm3appNtB5_3App18import_connections
FNDA:0,_RNvMs0_NtCsgnCEBF9lLaH_4sshm3appNtB5_3App19render_update_popup
FNDA:0,_RNvMs0_NtCsgnCEBF9lLaH_4sshm3appNtB5_3App3run
FNDA:0,_RNvMs0_NtCsgnCEBF9lLaH_4sshm3appNtB5_3App6render
FNDA:0,_RNvMs0_NtCsgnCEBF9lLaH_4sshm3appNtB5_3App7connect
FNDA:67,_RNCNvMs0_NtCsgnCEBF9lLaH_4sshm3appNtB7_3App13update_filter0B9_
FNDA:1,_RNCNvMs0_NtCsgnCEBF9lLaH_4sshm3appNtB7_3App15save_connection0B9_
FNDA:1,_RNCNvMs0_NtCsgnCEBF9lLaH_4sshm3appNtB7_3App15save_connections_0B9_
FNDA:7,_RNCNvMs0_NtCsgnCEBF9lLaH_4sshm3appNtB7_3App17delete_connection0B9_
FNDA:7,_RNCNvMs0_NtCsgnCEBF9lLaH_4sshm3appNtB7_3App17delete_connections_0B9_
FNF:124
FNH:96
DA:66,9
DA:67,9
DA:68,9
DA:69,9
DA:70,9
DA:71,9
DA:72,9
DA:73,9
DA:75,2
DA:76,2
DA:77,2
DA:78,2
DA:79,2
DA:80,2
DA:81,2
DA:82,2
DA:83,2
DA:84,2
DA:88,3
DA:89,3
DA:90,3
DA:92,3
DA:93,3
DA:94,3
DA:95,3
DA:96,3
DA:97,3
DA:98,3
DA:99,3
DA:100,3
DA:101,3
DA:102,3
DA:103,3
DA:104,3
DA:105,3
DA:106,3
DA:110,3
DA:111,3
DA:112,3
DA:114,0
DA:115,0
DA:116,0
DA:119,0
DA:121,0
DA:122,0
DA:123,0
DA:124,0
DA:125,0
DA:126,0
DA:128,0
DA:129,0
DA:130,0
DA:131,0
DA:132,0
DA:134,0
DA:135,0
DA:136,0
DA:137,0
DA:140,0
DA:142,0
DA:144,0
DA:145,0
DA:146,0
DA:147,0
DA:149,0
DA:151,0
DA:152,0
DA:155,0
DA:156,0
DA:157,0
DA:158,0
DA:159,0
DA:160,0
DA:161,0
DA:162,0
DA:163,0
DA:164,0
DA:166,0
DA:167,0
DA:168,0
DA:169,0
DA:171,0
DA:172,0
DA:174,0
DA:175,0
DA:176,0
DA:177,0
DA:178,0
DA:179,0
DA:180,0
DA:181,0
DA:182,0
DA:184,0
DA:185,0
DA:186,0
DA:187,0
DA:188,0
DA:189,0
DA:190,0
DA:191,0
DA:192,0
DA:194,0
DA:195,0
DA:196,0
DA:197,0
DA:198,0
DA:199,0
DA:201,0
DA:202,0
DA:203,0
DA:205,0
DA:206,0
DA:208,0
DA:209,0
DA:210,0
DA:212,0
DA:213,0
DA:214,0
DA:215,0
DA:218,0
DA:219,0
DA:220,0
DA:221,0
DA:222,0
DA:225,0
DA:226,0
DA:227,0
DA:230,0
DA:231,0
DA:232,0
DA:235,0
DA:236,0
DA:237,0
DA:238,0
DA:239,0
DA:240,0
DA:241,0
DA:244,0
DA:245,0
DA:246,0
DA:247,0
DA:248,0
DA:251,0
DA:252,0
DA:253,0
DA:254,0
DA:255,0
DA:258,0
DA:259,0
DA:260,0
DA:261,0
DA:262,0
DA:265,0
DA:266,0
DA:267,0
DA:268,0
DA:269,0
DA:271,0
DA:272,0
DA:273,0
DA:274,0
DA:275,0
DA:276,0
DA:278,0
DA:279,0
DA:280,0
DA:281,0
DA:282,0
DA:283,0
DA:284,0
DA:285,0
DA:287,0
DA:288,0
DA:289,0
DA:290,0
DA:291,0
DA:292,0
DA:293,0
DA:294,0
DA:295,0
DA:296,0
DA:297,0
DA:298,0
DA:299,0
DA:300,0
DA:301,0
DA:302,0
DA:303,0
DA:304,0
DA:305,0
DA:306,0
DA:307,0
DA:308,0
DA:309,0
DA:310,0
DA:311,0
DA:312,0
DA:313,0
DA:314,0
DA:315,0
DA:316,0
DA:317,0
DA:318,0
DA:320,0
DA:321,0
DA:322,0
DA:323,0
DA:324,0
DA:326,0
DA:327,0
DA:328,0
DA:329,0
DA:330,0
DA:331,0
DA:332,0
DA:333,0
DA:334,0
DA:336,0
DA:337,0
DA:338,0
DA:340,0
DA:342,0
DA:344,0
DA:345,0
DA:347,0
DA:348,0
DA:351,0
DA:352,0
DA:354,0
DA:355,0
DA:356,0
DA:358,0
DA:359,0
DA:360,0
DA:363,0
DA:364,0
DA:365,0
DA:367,0
DA:368,0
DA:369,0
DA:371,0
DA:372,0
DA:373,0
DA:375,0
DA:376,0
DA:377,0
DA:378,0
DA:379,0
DA:380,0
DA:381,0
DA:382,0
DA:383,0
DA:384,0
DA:386,0
DA:388,0
DA:389,0
DA:391,0
DA:393,0
DA:395,0
DA:396,0
DA:400,0
DA:401,0
DA:402,0
DA:403,0
DA:404,0
DA:405,0
DA:406,0
DA:407,0
DA:409,0
DA:410,0
DA:411,0
DA:412,0
DA:413,0
DA:414,0
DA:415,0
DA:416,0
DA:417,0
DA:419,0
DA:421,0
DA:422,0
DA:424,0
DA:426,0
DA:428,0
DA:429,0
DA:433,0
DA:434,0
DA:436,0
DA:438,0
DA:440,0
DA:441,0
DA:443,21
DA:444,21
DA:445,8
DA:446,7
DA:447,1
DA:449,5
DA:450,3
DA:451,3
DA:453,0
DA:454,0
DA:455,0
DA:457,21
DA:459,37
DA:460,37
DA:461,16
DA:462,21
DA:463,37
DA:465,10
DA:466,10
DA:467,6
DA:468,6
DA:469,6
DA:470,1
DA:471,1
DA:472,1
DA:473,1
DA:474,1
DA:475,1
DA:477,0
DA:478,0
DA:479,0
DA:481,1
DA:482,1
DA:483,1
DA:484,1
DA:485,1
DA:486,1
DA:487,0
DA:489,10
DA:491,12
DA:492,12
DA:493,2
DA:494,2
DA:495,2
DA:496,2
DA:497,2
DA:498,2
DA:499,0
DA:501,12
DA:503,5
DA:504,5
DA:506,5
DA:507,5
DA:508,1
DA:509,1
DA:510,1
DA:511,1
DA:512,1
DA:514,4
DA:516,5
DA:517,5
DA:518,5
DA:519,5
DA:520,5
DA:521,4
DA:523,1
DA:525,5
DA:526,4
DA:528,1
DA:532,5
DA:533,1
DA:534,4
DA:535,4
DA:536,4
DA:538,5
DA:539,0
DA:540,5
DA:541,5
DA:542,5
DA:543,5
DA:545,5
DA:546,5
DA:548,9
DA:549,9
DA:550,9
DA:551,9
DA:552,9
DA:553,9
DA:555,9
DA:556,7
DA:557,7
DA:558,0
DA:559,0
DA:560,7
DA:561,7
DA:562,0
DA:563,7
DA:564,7
DA:566,2
DA:567,9
DA:569,0
DA:570,0
DA:571,0
DA:572,0
DA:573,0
DA:574,0
DA:575,0
DA:576,0
DA:577,0
DA:579,0
DA:580,0
DA:581,0
DA:582,0
DA:583,0
DA:584,0
DA:585,0
DA:587,0
DA:588,0
DA:589,0
DA:590,0
DA:592,0
DA:593,0
DA:594,0
DA:595,0
DA:596,0
DA:597,0
DA:598,0
DA:599,0
DA:600,0
DA:601,0
DA:602,0
DA:603,0
DA:605,0
DA:607,35
DA:608,35
DA:609,12
DA:610,12
DA:611,23
DA:612,23
DA:613,23
DA:614,23
DA:615,23
DA:616,67
DA:617,67
DA:618,67
DA:619,67
DA:621,67
DA:622,23
DA:624,44
DA:626,67
DA:627,23
DA:630,35
DA:631,11
DA:632,24
DA:633,35
DA:635,0
DA:636,0
DA:637,0
DA:638,0
DA:639,0
DA:641,0
DA:642,0
DA:643,0
DA:644,0
DA:646,0
DA:647,0
DA:648,0
DA:649,0
DA:650,0
DA:651,0
DA:652,0
DA:653,0
DA:654,0
DA:656,0
DA:657,0
DA:658,0
DA:659,0
DA:660,0
DA:662,0
DA:663,0
DA:664,0
DA:665,0
DA:666,0
DA:667,0
DA:668,0
DA:669,0
DA:672,0
DA:673,0
DA:674,0
DA:675,0
DA:676,0
DA:678,0
DA:679,0
DA:680,0
DA:682,0
DA:683,0
DA:684,0
DA:687,0
DA:688,0
DA:689,0
DA:691,0
DA:692,0
DA:694,0
DA:695,0
DA:696,0
DA:697,0
DA:699,0
DA:701,0
DA:703,0
DA:704,0
DA:705,0
DA:707,0
DA:709,0
DA:710,0
DA:711,0
DA:712,0
DA:713,0
DA:714,0
DA:716,0
DA:717,0
DA:718,0
DA:719,0
DA:720,0
DA:721,0
DA:722,0
DA:724,0
DA:725,0
DA:726,0
DA:728,0
DA:731,0
DA:732,0
DA:734,0
DA:737,0
DA:739,0
DA:746,0
DA:747,0
DA:748,0
DA:749,0
DA:751,0
DA:754,0
DA:755,0
DA:756,0
DA:758,0
DA:760,0
DA:761,0
DA:763,0
DA:764,0
DA:765,0
DA:766,0
DA:767,0
DA:768,0
DA:769,0
DA:772,0
DA:773,0
DA:774,0
DA:775,0
DA:777,0
DA:778,0
DA:779,0
DA:780,0
DA:782,0
DA:783,0
DA:785,0
DA:786,0
DA:788,0
DA:789,0
DA:790,0
DA:791,0
DA:793,0
DA:794,0
DA:795,0
DA:796,0
DA:797,0
DA:798,0
DA:799,0
DA:800,0
DA:801,0
DA:802,0
DA:803,0
DA:804,0
DA:805,0
DA:807,0
DA:809,0
DA:810,0
DA:812,0
DA:814,0
DA:815,0
DA:816,0
DA:817,0
DA:818,0
DA:819,0
DA:821,0
DA:823,0
DA:824,0
DA:825,0
DA:826,0
DA:827,0
DA:828,0
DA:829,0
DA:830,0
DA:832,0
DA:833,0
DA:834,0
DA:835,0
DA:837,0
DA:840,0
DA:841,0
DA:842,0
DA:843,0
DA:844,0
DA:846,0
DA:849,0
DA:850,0
DA:851,0
DA:852,0
DA:853,0
DA:856,0
DA:859,0
DA:860,0
DA:861,0
DA:862,0
DA:863,0
DA:865,0
DA:866,0
DA:868,0
DA:869,0
DA:870,0
DA:871,0
DA:872,0
DA:873,0
DA:875,0
DA:876,0
DA:877,0
DA:878,0
DA:879,0
DA:881,0
DA:882,0
DA:884,0
DA:885,0
DA:886,0
DA:887,0
DA:888,0
DA:889,0
DA:891,0
DA:892,0
DA:894,0
DA:896,0
DA:897,0
DA:898,0
DA:900,0
DA:904,0
DA:906,0
DA:907,0
DA:908,0
DA:909,0
DA:910,0
DA:912,0
DA:913,0
DA:915,0
DA:916,0
DA:918,0
DA:919,0
DA:920,0
DA:921,0
DA:922,0
DA:923,0
DA:925,0
DA:926,0
DA:928,0
DA:929,0
DA:930,0
DA:931,0
DA:933,0
DA:935,0
DA:936,0
DA:937,0
DA:938,0
DA:940,0
DA:942,0
DA:944,0
DA:945,0
DA:946,0
DA:947,0
DA:949,0
DA:950,0
DA:952,0
DA:954,0
DA:956,0
DA:957,0
DA:959,0
DA:960,0
DA:961,0
DA:966,0
DA:967,0
DA:969,0
DA:971,0
DA:973,0
DA:974,0
DA:976,0
DA:977,0
DA:979,0
DA:980,0
DA:981,0
DA:982,0
DA:983,0
DA:984,0
DA:985,0
DA:986,0
DA:987,0
DA:988,0
DA:989,0
DA:990,0
DA:991,0
DA:992,0
DA:993,0
DA:994,0
DA:995,0
DA:996,0
DA:997,0
DA:998,0
DA:999,0
DA:1000,0
DA:1002,0
DA:1003,0
DA:1004,0
DA:1006,0
DA:1007,0
DA:1008,0
DA:1009,0
DA:1010,0
DA:1011,0
DA:1013,0
DA:1014,0
DA:1016,0
DA:1017,0
DA:1018,0
DA:1019,0
DA:1020,0
DA:1023,0
DA:1024,0
DA:1032,61
DA:1033,61
DA:1034,61
DA:1035,61
DA:1036,61
DA:1037,61
DA:1038,61
DA:1039,61
DA:1040,61
DA:1041,61
DA:1042,61
DA:1043,61
DA:1044,61
DA:1045,61
DA:1046,61
DA:1047,61
DA:1048,61
DA:1049,61
DA:1050,61
DA:1051,61
DA:1052,61
DA:1053,61
DA:1054,61
DA:1055,61
DA:1056,61
DA:1057,61
DA:1058,61
DA:1059,61
DA:1060,61
DA:1062,61
DA:1063,61
DA:1064,61
DA:1065,61
DA:1066,61
DA:1067,61
DA:1068,61
DA:1069,61
DA:1070,61
DA:1071,61
DA:1072,61
DA:1073,61
DA:1074,61
DA:1075,61
DA:1076,61
DA:1079,1
DA:1080,1
DA:1081,1
DA:1082,1
DA:1083,1
DA:1084,1
DA:1085,1
DA:1088,1
DA:1089,1
DA:1090,1
DA:1091,1
DA:1092,1
DA:1093,1
DA:1094,1
DA:1095,1
DA:1096,1
DA:1098,1
DA:1100,1
DA:1101,1
DA:1102,1
DA:1103,1
DA:1104,1
DA:1105,1
DA:1106,1
DA:1109,1
DA:1110,1
DA:1111,1
DA:1112,1
DA:1113,1
DA:1114,1
DA:1115,1
DA:1116,1
DA:1117,1
DA:1118,1
DA:1120,1
DA:1122,1
DA:1123,1
DA:1124,1
DA:1125,1
DA:1126,1
DA:1127,1
DA:1128,1
DA:1131,1
DA:1132,1
DA:1133,1
DA:1134,1
DA:1135,1
DA:1136,1
DA:1137,1
DA:1138,1
DA:1139,1
DA:1140,1
DA:1142,1
DA:1144,1
DA:1145,1
DA:1146,1
DA:1147,1
DA:1148,1
DA:1149,1
DA:1150,1
DA:1153,1
DA:1154,1
DA:1156,1
DA:1157,1
DA:1158,1
DA:1160,1
DA:1161,1
DA:1163,1
DA:1164,1
DA:1165,1
DA:1167,1
DA:1168,1
DA:1169,1
DA:1170,1
DA:1173,1
DA:1174,1
DA:1175,1
DA:1177,1
DA:1179,1
DA:1180,1
DA:1182,1
DA:1183,1
DA:1185,1
DA:1186,1
DA:1188,1
DA:1189,1
DA:1191,1
DA:1192,1
DA:1193,1
DA:1196,1
DA:1197,1
DA:1199,1
DA:1200,1
DA:1201,1
DA:1202,1
DA:1204,1
DA:1205,1
DA:1206,1
DA:1209,1
DA:1210,1
DA:1212,1
DA:1214,1
DA:1215,1
DA:1217,1
DA:1218,1
DA:1220,1
DA:1221,1
DA:1223,1
DA:1224,1
DA:1226,1
DA:1227,1
DA:1229,1
DA:1230,1
DA:1231,1
DA:1234,1
DA:1235,1
DA:1237,1
DA:1238,1
DA:1240,1
DA:1241,1
DA:1243,1
DA:1244,1
DA:1246,1
DA:1247,1
DA:1249,1
DA:1250,1
DA:1252,1
DA:1253,1
DA:1254,1
DA:1257,1
DA:1258,1
DA:1259,1
DA:1261,1
DA:1263,1
DA:1264,1
DA:1267,1
DA:1268,1
DA:1269,1
DA:1271,1
DA:1273,1
DA:1274,1
DA:1277,1
DA:1278,1
DA:1279,1
DA:1281,1
DA:1283,1
DA:1284,1
DA:1287,1
DA:1288,1
DA:1289,1
DA:1291,1
DA:1293,1
DA:1294,1
DA:1297,1
DA:1298,1
DA:1299,1
DA:1301,1
DA:1303,1
DA:1304,1
DA:1307,1
DA:1308,1
DA:1309,1
DA:1311,1
DA:1313,1
DA:1314,1
DA:1317,1
DA:1318,1
DA:1319,1
DA:1320,1
DA:1322,1
DA:1324,1
DA:1325,1
DA:1328,1
DA:1329,1
DA:1330,1
DA:1331,1
DA:1332,1
DA:1333,1
DA:1334,1
DA:1335,1
DA:1336,1
DA:1337,1
DA:1339,1
DA:1341,1
DA:1342,1
DA:1345,1
DA:1346,1
DA:1347,1
DA:1349,1
DA:1351,1
DA:1352,1
DA:1355,1
DA:1356,1
DA:1357,1
DA:1358,1
DA:1359,1
DA:1361,1
DA:1362,1
DA:1364,1
DA:1365,1
DA:1368,1
DA:1369,1
DA:1370,1
DA:1371,1
DA:1372,1
DA:1373,1
DA:1376,1
DA:1377,1
DA:1379,1
DA:1380,1
DA:1381,1
DA:1383,1
DA:1384,1
DA:1386,1
DA:1387,1
DA:1390,1
DA:1391,1
DA:1393,1
DA:1394,1
DA:1395,1
DA:1396,1
DA:1397,1
DA:1398,1
DA:1400,1
DA:1401,1
DA:1402,1
DA:1403,1
DA:1404,1
DA:1405,1
DA:1407,1
DA:1408,1
DA:1409,1
DA:1412,1
DA:1413,1
DA:1415,10
DA:1416,10
DA:1417,10
DA:1418,1
DA:1419,1
DA:1422,1
DA:1423,1
DA:1424,1
DA:1426,1
DA:1427,1
DA:1428,1
DA:1429,1
DA:1432,1
DA:1433,1
DA:1434,1
DA:1435,1
DA:1437,1
DA:1438,1
DA:1439,1
DA:1440,1
DA:1443,1
DA:1444,1
DA:1445,1
DA:1446,1
DA:1448,1
DA:1449,1
DA:1450,1
DA:1451,1
DA:1454,1
DA:1455,1
DA:1456,1
DA:1458,1
DA:1460,1
DA:1461,1
DA:1464,1
DA:1465,1
DA:1466,1
DA:1468,1
DA:1470,1
DA:1471,1
DA:1474,1
DA:1475,1
DA:1476,1
DA:1477,1
DA:1479,1
DA:1481,1
DA:1482,1
DA:1485,1
DA:1486,1
DA:1487,1
DA:1488,1
DA:1490,1
DA:1491,1
DA:1493,1
DA:1494,1
DA:1497,1
DA:1498,1
DA:1500,1
DA:1502,1
DA:1503,1
DA:1505,1
DA:1506,1
DA:1508,1
DA:1509,1
DA:1510,1
DA:1513,1
DA:1514,1
DA:1515,1
DA:1516,1
DA:1519,1
DA:1520,1
DA:1521,1
DA:1522,1
DA:1525,1
DA:1526,1
DA:1528,1
DA:1529,1
DA:1531,1
DA:1532,1
DA:1533,1
DA:1536,1
DA:1537,1
DA:1538,1
DA:1540,1
DA:1541,1
DA:1542,1
DA:1543,1
DA:1544,1
DA:1545,1
DA:1546,1
DA:1547,1
DA:1548,1
DA:1550,1
DA:1552,1
DA:1553,1
DA:1556,1
DA:1557,1
DA:1558,1
DA:1560,1
DA:1561,1
DA:1562,1
DA:1563,1
DA:1564,1
DA:1565,1
DA:1566,1
DA:1567,1
DA:1568,1
DA:1569,1
DA:1571,1
DA:1573,1
DA:1574,1
DA:1577,1
DA:1578,1
DA:1579,1
DA:1581,1
DA:1582,1
DA:1584,1
DA:1585,1
DA:1588,1
DA:1589,1
DA:1590,1
DA:1592,1
DA:1593,1
DA:1595,1
DA:1596,1
DA:1599,1
DA:1600,1
DA:1601,1
DA:1602,1
DA:1604,1
DA:1605,1
DA:1608,1
DA:1609,1
DA:1611,1
DA:1612,1
DA:1614,1
DA:1615,1
DA:1616,1
DA:1619,1
DA:1620,1
DA:1621,1
DA:1622,1
DA:1623,1
DA:1624,1
DA:1625,1
DA:1626,1
DA:1627,1
DA:1629,1
DA:1630,1
DA:1631,1
DA:1632,1
DA:1633,1
DA:1634,1
DA:1635,1
DA:1638,1
DA:1639,1
DA:1640,1
DA:1642,1
DA:1644,1
DA:1645,1
DA:1646,1
DA:1649,1
DA:1650,1
DA:1651,1
DA:1653,1
DA:1655,1
DA:1656,1
DA:1659,1
DA:1660,1
DA:1662,1
DA:1663,1
DA:1664,1
DA:1665,1
DA:1668,1
DA:1669,1
DA:1670,1
DA:1671,1
DA:1672,1
DA:1674,1
DA:1676,1
DA:1677,1
DA:1680,1
DA:1681,1
DA:1683,1
DA:1684,1
DA:1687,1
DA:1688,1
DA:1689,1
DA:1691,1
DA:1692,1
DA:1695,1
DA:1696,1
DA:1697,1
DA:1699,1
DA:1701,1
DA:1702,1
DA:1705,1
DA:1706,1
DA:1707,1
DA:1709,1
DA:1710,1
DA:1712,1
DA:1713,1
DA:1716,1
DA:1717,1
DA:1719,1
DA:1720,1
DA:1721,1
DA:1722,1
DA:1723,1
DA:1724,1
DA:1725,1
DA:1726,1
DA:1727,1
DA:1729,1
DA:1731,1
DA:1732,1
DA:1733,1
DA:1734,1
DA:1735,1
DA:1736,1
DA:1737,1
DA:1738,1
DA:1741,1
DA:1742,1
DA:1744,1
DA:1745,1
DA:1746,1
DA:1747,1
DA:1748,1
DA:1749,1
DA:1750,1
DA:1751,1
DA:1752,1
DA:1754,1
DA:1756,1
DA:1757,1
DA:1758,1
DA:1761,1
DA:1762,1
DA:1764,1
DA:1765,1
DA:1767,1
DA:1768,1
DA:1771,1
DA:1772,1
DA:1774,20
DA:1775,20
DA:1776,20
DA:1778,1
DA:1779,1
DA:1782,1
DA:1783,1
DA:1784,1
DA:1786,1
DA:1787,1
DA:1789,1
DA:1790,1
DA:1792,1
DA:1793,1
DA:1795,1
DA:1796,1
DA:1797,1
DA:1798,1
DA:1801,1
DA:1802,1
DA:1803,1
DA:1805,1
DA:1806,1
DA:1807,1
DA:1809,1
DA:1810,1
DA:1812,1
DA:1813,1
DA:1815,1
DA:1816,1
DA:1818,1
DA:1819,1
DA:1820,1
DA:1821,1
DA:1824,1
DA:1825,1
DA:1826,1
DA:1827,1
DA:1828,1
DA:1830,1
DA:1832,1
DA:1833,1
DA:1836,1
DA:1837,1
DA:1838,1
DA:1840,1
DA:1841,1
DA:1844,1
DA:1845,1
DA:1847,1
DA:1849,1
DA:1850,1
DA:1851,1
DA:1852,1
DA:1855,1
DA:1856,1
DA:1859,1
DA:1860,1
DA:1861,1
DA:1863,1
DA:1864,1
DA:1867,1
DA:1868,1
DA:1869,1
DA:1871,1
DA:1872,1
DA:1875,1
DA:1876,1
DA:1878,6
DA:1879,6
DA:1880,6
DA:1881,6
DA:1882,1
DA:1885,1
DA:1886,1
DA:1887,1
DA:1889,1
DA:1890,1
DA:1892,1
DA:1894,1
DA:1895,1
DA:1898,1
DA:1899,1
DA:1900,1
DA:1902,1
DA:1903,1
DA:1905,1
DA:1907,1
DA:1908,1
DA:1911,1
DA:1912,1
DA:1914,1
DA:1915,1
DA:1916,1
DA:1917,1
DA:1918,1
DA:1919,1
DA:1920,1
DA:1923,1
DA:1924,1
DA:1925,1
DA:1927,1
DA:1928,1
DA:1931,1
DA:1932,1
DA:1934,1
DA:1936,1
DA:1937,1
DA:1940,1
DA:1941,1
DA:1943,1
DA:1944,1
DA:1946,1
DA:1947,1
DA:1950,1
DA:1951,1
DA:1953,1
DA:1954,1
DA:1956,1
DA:1957,1
DA:1960,1
DA:1961,1
DA:1963,1
DA:1964,1
DA:1966,1
DA:1967,1
DA:1970,1
DA:1971,1
DA:1973,1
DA:1975,1
DA:1976,1
DA:1979,1
DA:1980,1
DA:1982,1
DA:1984,1
DA:1985,1
DA:1988,1
DA:1989,1
DA:1991,1
DA:1992,1
DA:1994,1
DA:1995,1
DA:1998,1
DA:1999,1
DA:2001,1
DA:2003,1
DA:2004,1
DA:2007,1
DA:2008,1
DA:2010,1
DA:2012,1
DA:2013,1
DA:2016,1
DA:2017,1
DA:2019,1
DA:2021,1
DA:2022,1
DA:2025,1
DA:2026,1
DA:2028,1
DA:2030,1
DA:2031,1
DA:2034,1
DA:2035,1
DA:2037,1
DA:2039,1
DA:2040,1
DA:2043,1
DA:2044,1
DA:2046,1
DA:2048,1
DA:2049,1
DA:2052,1
DA:2053,1
DA:2055,1
DA:2057,1
DA:2058,1
BRF:0
BRH:0
LF:1444
LH:855
end_of_record
SF:/home/rute/projgit/ssh-manager/sshm/src/config.rs
FN:20,_RNvMNtCsgnCEBF9lLaH_4sshm6configNtB2_10Connection3new
FN:67,_RNvMs_NtCsgnCEBF9lLaH_4sshm6configNtB4_6Config11config_path
FN:72,_RNvMs_NtCsgnCEBF9lLaH_4sshm6configNtB4_6Config14add_connection
FN:76,_RNvMs_NtCsgnCEBF9lLaH_4sshm6configNtB4_6Config17remove_connection
FN:80,_RNvMs_NtCsgnCEBF9lLaH_4sshm6configNtB4_6Config17update_connection
FN:39,_RNvMs_NtCsgnCEBF9lLaH_4sshm6configNtB4_6Config3new
FN:43,_RNvMs_NtCsgnCEBF9lLaH_4sshm6configNtB4_6Config4load
FN:57,_RNvMs_NtCsgnCEBF9lLaH_4sshm6configNtB4_6Config4save
FN:77,_RNCNvMs_NtCsgnCEBF9lLaH_4sshm6configNtB6_6Config17remove_connection0B8_
FN:81,_RNCNvMs_NtCsgnCEBF9lLaH_4sshm6configNtB6_6Config17update_connection0B8_
FN:60,_RNCNvMs_NtCsgnCEBF9lLaH_4sshm6configNtB6_6Config4save0B8_
FN:63,_RNCNvMs_NtCsgnCEBF9lLaH_4sshm6configNtB6_6Config4saves0_0B8_
FN:62,_RNCNvMs_NtCsgnCEBF9lLaH_4sshm6configNtB6_6Config4saves_0B8_
FN:156,_RNCNvNtCsgnCEBF9lLaH_4sshm6config22import_from_ssh_config0B5_
FN:168,_RNCNvNtCsgnCEBF9lLaH_4sshm6config22import_from_ssh_configs_0B5_
FN:96,_RNvNtCsgnCEBF9lLaH_4sshm6config16parse_ssh_config
FN:154,_RNvNtCsgnCEBF9lLaH_4sshm6config22import_from_ssh_config
FN:406,_RNCNvNtNtCsgnCEBF9lLaH_4sshm6config5testss_18test_folder_sorted0B7_
FN:222,_RNvNtNtCsgnCEBF9lLaH_4sshm6config5testss_15test_config_new
FN:498,_RNvNtNtCsgnCEBF9lLaH_4sshm6config5testss_17test_config_debug
FN:372,_RNvNtNtCsgnCEBF9lLaH_4sshm6config5testss_18test_folder_sorted
FN:252,_RNvNtNtCsgnCEBF9lLaH_4sshm6config5testss_19test_add_connection
FN:187,_RNvNtNtCsgnCEBF9lLaH_4sshm6config5testss_19test_connection_new
FN:489,_RNvNtNtCsgnCEBF9lLaH_4sshm6config5testss_21test_connection_debug
FN:264,_RNvNtNtCsgnCEBF9lLaH_4sshm6config5testss_22test_remove_connection
FN:299,_RNvNtNtCsgnCEBF9lLaH_4sshm6config5testss_22test_update_connection
FN:416,_RNvNtNtCsgnCEBF9lLaH_4sshm6config5testss_23test_config_deserialize
FN:507,_RNvNtNtCsgnCEBF9lLaH_4sshm6config5testss_24test_config_impl_default
FN:438,_RNvNtNtCsgnCEBF9lLaH_4sshm6config5testss_27test_config_serialize_empty
FN:474,_RNvNtNtCsgnCEBF9lLaH_4sshm6config5testss_27test_ssh_config_entry_debug
FN:228,_RNvNtNtCsgnCEBF9lLaH_4sshm6config5testss_28test_config_from_connections
FN:363,_RNvNtNtCsgnCEBF9lLaH_4sshm6config5testss_31test_connection_folder_optional
FN:202,_RNvNtNtCsgnCEBF9lLaH_4sshm6config5testss_31test_connection_with_all_fields
FN:282,_RNvNtNtCsgnCEBF9lLaH_4sshm6config5testss_32test_remove_connection_not_found
FN:327,_RNvNtNtCsgnCEBF9lLaH_4sshm6config5testss_32test_update_connection_not_found
FN:354,_RNvNtNtCsgnCEBF9lLaH_4sshm6config5testss_33test_connection_key_path_optional
FN:514,_RNvNtNtCsgnCEBF9lLaH_4sshm6config5testss_39test_connection_with_key_path_serialize
FN:426,_RNvNtNtCsgnCEBF9lLaH_4sshm6config5testss_43test_connection_deserialize_with_all_fields
FN:447,_RNvNtNtCsgnCEBF9lLaH_4sshm6config5testss_47test_config_with_multiple_connections_serialize
FNDA:6,_RNvMNtCsgnCEBF9lLaH_4sshm6configNtB2_10Connection3new
FNDA:15,_RNvMs_NtCsgnCEBF9lLaH_4sshm6configNtB4_6Config11config_path
FNDA:200,_RNvMs_NtCsgnCEBF9lLaH_4sshm6configNtB4_6Config14add_connection
FNDA:9,_RNvMs_NtCsgnCEBF9lLaH_4sshm6configNtB4_6Config17remove_connection
FNDA:3,_RNvMs_NtCsgnCEBF9lLaH_4sshm6configNtB4_6Config17update_connection
FNDA:72,_RNvMs_NtCsgnCEBF9lLaH_4sshm6configNtB4_6Config3new
FNDA:3,_RNvMs_NtCsgnCEBF9lLaH_4sshm6configNtB4_6Config4load
FNDA:12,_RNvMs_NtCsgnCEBF9lLaH_4sshm6configNtB4_6Config4save
FNDA:23,_RNCNvMs_NtCsgnCEBF9lLaH_4sshm6configNtB6_6Config17remove_connection0B8_
FNDA:3,_RNCNvMs_NtCsgnCEBF9lLaH_4sshm6configNtB6_6Config17update_connection0B8_
FNDA:0,_RNCNvMs_NtCsgnCEBF9lLaH_4sshm6configNtB6_6Config4save0B8_
FNDA:0,_RNCNvMs_NtCsgnCEBF9lLaH_4sshm6configNtB6_6Config4saves0_0B8_
FNDA:0,_RNCNvMs_NtCsgnCEBF9lLaH_4sshm6configNtB6_6Config4saves_0B8_
FNDA:0,_RNCNvNtCsgnCEBF9lLaH_4sshm6config22import_from_ssh_config0B5_
FNDA:0,_RNCNvNtCsgnCEBF9lLaH_4sshm6config22import_from_ssh_configs_0B5_
FNDA:0,_RNvNtCsgnCEBF9lLaH_4sshm6config16parse_ssh_config
FNDA:0,_RNvNtCsgnCEBF9lLaH_4sshm6config22import_from_ssh_config
FNDA:3,_RNCNvNtNtCsgnCEBF9lLaH_4sshm6config5testss_18test_folder_sorted0B7_
FNDA:1,_RNvNtNtCsgnCEBF9lLaH_4sshm6config5testss_15test_config_new
FNDA:1,_RNvNtNtCsgnCEBF9lLaH_4sshm6config5testss_17test_config_debug
FNDA:1,_RNvNtNtCsgnCEBF9lLaH_4sshm6config5testss_18test_folder_sorted
FNDA:1,_RNvNtNtCsgnCEBF9lLaH_4sshm6config5testss_19test_add_connection
FNDA:1,_RNvNtNtCsgnCEBF9lLaH_4sshm6config5testss_19test_connection_new
FNDA:1,_RNvNtNtCsgnCEBF9lLaH_4sshm6config5testss_21test_connection_debug
FNDA:1,_RNvNtNtCsgnCEBF9lLaH_4sshm6config5testss_22test_remove_connection
FNDA:1,_RNvNtNtCsgnCEBF9lLaH_4sshm6config5testss_22test_update_connection
FNDA:1,_RNvNtNtCsgnCEBF9lLaH_4sshm6config5testss_23test_config_deserialize
FNDA:1,_RNvNtNtCsgnCEBF9lLaH_4sshm6config5testss_24test_config_impl_default
FNDA:1,_RNvNtNtCsgnCEBF9lLaH_4sshm6config5testss_27test_config_serialize_empty
FNDA:1,_RNvNtNtCsgnCEBF9lLaH_4sshm6config5testss_27test_ssh_config_entry_debug
FNDA:1,_RNvNtNtCsgnCEBF9lLaH_4sshm6config5testss_28test_config_from_connections
FNDA:1,_RNvNtNtCsgnCEBF9lLaH_4sshm6config5testss_31test_connection_folder_optional
FNDA:1,_RNvNtNtCsgnCEBF9lLaH_4sshm6config5testss_31test_connection_with_all_fields
FNDA:1,_RNvNtNtCsgnCEBF9lLaH_4sshm6config5testss_32test_remove_connection_not_found
FNDA:1,_RNvNtNtCsgnCEBF9lLaH_4sshm6config5testss_32test_update_connection_not_found
FNDA:1,_RNvNtNtCsgnCEBF9lLaH_4sshm6config5testss_33test_connection_key_path_optional
FNDA:1,_RNvNtNtCsgnCEBF9lLaH_4sshm6config5testss_39test_connection_with_key_path_serialize
FNDA:1,_RNvNtNtCsgnCEBF9lLaH_4sshm6config5testss_43test_connection_deserialize_with_all_fields
FNDA:1,_RNvNtNtCsgnCEBF9lLaH_4sshm6config5testss_47test_config_with_multiple_connections_serialize
FNF:39
FNH:32
DA:20,6
DA:21,6
DA:22,6
DA:23,6
DA:24,6
DA:25,6
DA:26,6
DA:27,6
DA:28,6
DA:29,6
DA:30,6
DA:39,72
DA:40,72
DA:41,72
DA:43,3
DA:44,3
DA:45,3
DA:46,3
DA:47,3
DA:48,3
DA:49,0
DA:51,0
DA:53,0
DA:54,0
DA:55,3
DA:57,12
DA:58,12
DA:59,12
DA:60,12
DA:61,0
DA:62,12
DA:63,12
DA:64,12
DA:65,12
DA:67,15
DA:68,15
DA:69,15
DA:70,15
DA:72,200
DA:73,200
DA:74,200
DA:76,9
DA:77,23
DA:78,9
DA:80,3
DA:81,3
DA:82,2
DA:83,2
DA:84,3
DA:96,0
DA:97,0
DA:98,0
DA:99,0
DA:102,0
DA:103,0
DA:104,0
DA:105,0
DA:106,0
DA:107,0
DA:109,0
DA:110,0
DA:111,0
DA:112,0
DA:113,0
DA:115,0
DA:116,0
DA:117,0
DA:118,0
DA:120,0
DA:121,0
DA:122,0
DA:123,0
DA:124,0
DA:125,0
DA:126,0
DA:127,0
DA:128,0
DA:129,0
DA:130,0
DA:131,0
DA:133,0
DA:134,0
DA:135,0
DA:136,0
DA:137,0
DA:141,0
DA:142,0
DA:143,0
DA:144,0
DA:145,0
DA:146,0
DA:147,0
DA:148,0
DA:149,0
DA:151,0
DA:152,0
DA:154,0
DA:155,0
DA:156,0
DA:157,0
DA:159,0
DA:160,0
DA:162,0
DA:163,0
DA:165,0
DA:166,0
DA:167,0
DA:168,0
DA:169,0
DA:170,0
DA:171,0
DA:172,0
DA:173,0
DA:174,0
DA:175,0
DA:176,0
DA:179,0
DA:180,0
DA:187,1
DA:188,1
DA:189,1
DA:190,1
DA:191,1
DA:193,1
DA:194,1
DA:195,1
DA:196,1
DA:197,1
DA:198,1
DA:199,1
DA:202,1
DA:203,1
DA:204,1
DA:205,1
DA:206,1
DA:207,1
DA:208,1
DA:209,1
DA:210,1
DA:211,1
DA:212,1
DA:213,1
DA:214,1
DA:215,1
DA:216,1
DA:217,1
DA:218,1
DA:219,1
DA:222,1
DA:223,1
DA:224,1
DA:225,1
DA:228,1
DA:229,1
DA:230,1
DA:231,1
DA:232,1
DA:233,1
DA:234,1
DA:235,1
DA:236,1
DA:237,1
DA:238,1
DA:239,1
DA:240,1
DA:241,1
DA:242,1
DA:243,1
DA:244,1
DA:245,1
DA:246,1
DA:247,1
DA:248,1
DA:249,1
DA:252,1
DA:253,1
DA:254,1
DA:255,1
DA:256,1
DA:257,1
DA:259,1
DA:260,1
DA:261,1
DA:264,1
DA:265,1
DA:266,1
DA:267,1
DA:268,1
DA:269,1
DA:270,1
DA:271,1
DA:272,1
DA:273,1
DA:274,1
DA:275,1
DA:277,1
DA:278,1
DA:279,1
DA:282,1
DA:283,1
DA:284,1
DA:285,1
DA:286,1
DA:287,1
DA:288,1
DA:289,1
DA:290,1
DA:291,1
DA:292,1
DA:294,1
DA:295,1
DA:296,1
DA:299,1
DA:300,1
DA:301,1
DA:302,1
DA:303,1
DA:304,1
DA:305,1
DA:306,1
DA:307,1
DA:308,1
DA:309,1
DA:311,1
DA:312,1
DA:313,1
DA:314,1
DA:315,1
DA:316,1
DA:317,1
DA:318,1
DA:319,1
DA:321,1
DA:322,1
DA:323,1
DA:324,1
DA:327,1
DA:328,1
DA:329,1
DA:330,1
DA:331,1
DA:332,1
DA:333,1
DA:334,1
DA:335,1
DA:336,1
DA:337,1
DA:339,1
DA:340,1
DA:341,1
DA:342,1
DA:343,1
DA:344,1
DA:345,1
DA:346,1
DA:347,1
DA:349,1
DA:350,1
DA:351,1
DA:354,1
DA:355,1
DA:357,1
DA:359,1
DA:360,1
DA:363,1
DA:364,1
DA:366,1
DA:368,1
DA:369,1
DA:372,1
DA:373,1
DA:374,1
DA:375,1
DA:376,1
DA:377,1
DA:378,1
DA:379,1
DA:380,1
DA:381,1
DA:382,1
DA:383,1
DA:384,1
DA:385,1
DA:386,1
DA:387,1
DA:388,1
DA:389,1
DA:390,1
DA:391,1
DA:392,1
DA:393,1
DA:394,1
DA:395,1
DA:396,1
DA:397,1
DA:398,1
DA:399,1
DA:400,1
DA:403,1
DA:404,1
DA:405,1
DA:406,3
DA:407,1
DA:408,1
DA:409,1
DA:410,1
DA:412,1
DA:413,1
DA:416,1
DA:417,1
DA:419,1
DA:421,1
DA:422,1
DA:423,1
DA:426,1
DA:427,1
DA:429,1
DA:431,1
DA:432,1
DA:433,1
DA:434,1
DA:435,1
DA:438,1
DA:439,1
DA:441,1
DA:443,1
DA:444,1
DA:447,1
DA:448,1
DA:449,1
DA:450,1
DA:451,1
DA:452,1
DA:453,1
DA:454,1
DA:455,1
DA:456,1
DA:457,1
DA:458,1
DA:459,1
DA:460,1
DA:461,1
DA:462,1
DA:463,1
DA:464,1
DA:465,1
DA:466,1
DA:468,1
DA:470,1
DA:471,1
DA:474,1
DA:475,1
DA:476,1
DA:477,1
DA:478,1
DA:479,1
DA:480,1
DA:481,1
DA:483,1
DA:485,1
DA:486,1
DA:489,1
DA:490,1
DA:492,1
DA:494,1
DA:495,1
DA:498,1
DA:499,1
DA:501,1
DA:503,1
DA:504,1
DA:507,1
DA:508,1
DA:510,1
DA:511,1
DA:514,1
DA:515,1
DA:516,1
DA:517,1
DA:518,1
DA:519,1
DA:520,1
DA:521,1
DA:522,1
DA:523,1
DA:525,1
DA:527,1
DA:528,1
BRF:0
BRH:0
LF:396
LH:317
end_of_record
SF:/home/rute/projgit/ssh-manager/sshm/src/ssh.rs
FN:29,_RNCNvNtCsgnCEBF9lLaH_4sshm3ssh11execute_ssh0B5_
FN:27,_RNvNtCsgnCEBF9lLaH_4sshm3ssh11execute_ssh
FN:4,_RNvNtCsgnCEBF9lLaH_4sshm3ssh14build_ssh_args
FNDA:0,_RNCNvNtCsgnCEBF9lLaH_4sshm3ssh11execute_ssh0B5_
FNDA:0,_RNvNtCsgnCEBF9lLaH_4sshm3ssh11execute_ssh
FNDA:0,_RNvNtCsgnCEBF9lLaH_4sshm3ssh14build_ssh_args
FNF:3
FNH:0
DA:4,0
DA:5,0
DA:7,0
DA:8,0
DA:9,0
DA:10,0
DA:12,0
DA:13,0
DA:14,0
DA:15,0
DA:17,0
DA:18,0
DA:20,0
DA:22,0
DA:24,0
DA:25,0
DA:27,0
DA:28,0
DA:29,0
DA:30,0
BRF:0
BRH:0
LF:21
LH:0
end_of_record
SF:/home/rute/projgit/ssh-manager/sshm/src/update.rs
FN:51,_RNCNvNtCsgnCEBF9lLaH_4sshm6update10read_cache0B5_
FN:54,_RNCNvNtCsgnCEBF9lLaH_4sshm6update10read_caches_0B5_
FN:63,_RNCNvNtCsgnCEBF9lLaH_4sshm6update11write_cache0B5_
FN:74,_RNCNvNtCsgnCEBF9lLaH_4sshm6update11write_caches0_0B5_
FN:72,_RNCNvNtCsgnCEBF9lLaH_4sshm6update11write_caches_0B5_
FN:28,_RNCNvNtCsgnCEBF9lLaH_4sshm6update13get_cache_dir0B5_
FN:92,_RNCNvNtCsgnCEBF9lLaH_4sshm6update19should_check_update0B5_
FN:43,_RNvNtCsgnCEBF9lLaH_4sshm6update10read_cache
FN:59,_RNvNtCsgnCEBF9lLaH_4sshm6update11write_cache
FN:22,_RNvNtCsgnCEBF9lLaH_4sshm6update13get_cache_dir
FN:115,_RNvNtCsgnCEBF9lLaH_4sshm6update16check_for_update
FN:33,_RNvNtCsgnCEBF9lLaH_4sshm6update19get_cache_file_path
FN:79,_RNvNtCsgnCEBF9lLaH_4sshm6update19should_check_update
FN:186,_RNvNtCsgnCEBF9lLaH_4sshm6update22force_check_for_update
FN:100,_RNvNtCsgnCEBF9lLaH_4sshm6update23get_platform_asset_name
FN:485,_RNCNvNtNtCsgnCEBF9lLaH_4sshm6update5testss_31test_platform_asset_name_format0B7_
FN:1324,_RNCNvNtNtCsgnCEBF9lLaH_4sshm6update5testss_37test_platform_asset_name_is_lowercase0B7_
FN:322,_RNvNtNtCsgnCEBF9lLaH_4sshm6update5testss_18test_get_cache_dir
FN:496,_RNvNtNtCsgnCEBF9lLaH_4sshm6update5testss_20test_cache_file_name
FN:369,_RNvNtNtCsgnCEBF9lLaH_4sshm6update5testss_21test_cache_data_debug
FN:458,_RNvNtNtCsgnCEBF9lLaH_4sshm6update5testss_22test_cache_data_fields
FN:253,_RNvNtNtCsgnCEBF9lLaH_4sshm6update5testss_22test_cache_data_struct
FN:960,_RNvNtNtCsgnCEBF9lLaH_4sshm6update5testss_22test_cache_persistence
FN:447,_RNvNtNtCsgnCEBF9lLaH_4sshm6update5testss_22test_update_info_clone
FN:413,_RNvNtNtCsgnCEBF9lLaH_4sshm6update5testss_22test_update_info_debug
FN:521,_RNvNtNtCsgnCEBF9lLaH_4sshm6update5testss_23test_cache_data_display
FN:306,_RNvNtNtCsgnCEBF9lLaH_4sshm6update5testss_23test_update_info_struct
FN:330,_RNvNtNtCsgnCEBF9lLaH_4sshm6update5testss_24test_get_cache_file_path
FN:339,_RNvNtNtCsgnCEBF9lLaH_4sshm6update5testss_24test_read_cache_no_cache
FN:511,_RNvNtNtCsgnCEBF9lLaH_4sshm6update5testss_24test_update_info_display
FN:433,_RNvNtNtCsgnCEBF9lLaH_4sshm6update5testss_24test_update_result_clone
FN:406,_RNvNtNtCsgnCEBF9lLaH_4sshm6update5testss_24test_update_result_debug
FN:751,_RNvNtNtCsgnCEBF9lLaH_4sshm6update5testss_25test_read_cache_with_data
FN:576,_RNvNtNtCsgnCEBF9lLaH_4sshm6update5testss_26test_cache_data_all_fields
FN:1406,_RNvNtNtCsgnCEBF9lLaH_4sshm6update5testss_26test_cache_dir_is_absolute
FN:586,_RNvNtNtCsgnCEBF9lLaH_4sshm6update5testss_26test_cache_duration_values
FN:1412,_RNvNtNtCsgnCEBF9lLaH_4sshm6update5testss_26test_cache_file_has_parent
FN:624,_RNvNtNtCsgnCEBF9lLaH_4sshm6update5testss_26test_cache_operation_types
FN:358,_RNvNtNtCsgnCEBF9lLaH_4sshm6update5testss_26test_cache_path_generation
FN:504,_RNvNtNtCsgnCEBF9lLaH_4sshm6update5testss_26test_update_result_display
FN:1400,_RNvNtNtCsgnCEBF9lLaH_4sshm6update5testss_27test_cache_path_is_absolute
FN:945,_RNvNtNtCsgnCEBF9lLaH_4sshm6update5testss_27test_cache_read_after_write
FN:640,_RNvNtNtCsgnCEBF9lLaH_4sshm6update5testss_27test_get_cache_dir_is_valid
FN:379,_RNvNtNtCsgnCEBF9lLaH_4sshm6update5testss_27test_update_check_constants
FN:566,_RNvNtNtCsgnCEBF9lLaH_4sshm6update5testss_27test_update_info_all_fields
FN:278,_RNvNtNtCsgnCEBF9lLaH_4sshm6update5testss_27test_update_result_variants
FN:614,_RNvNtNtCsgnCEBF9lLaH_4sshm6update5testss_28test_cache_data_debug_format
FN:1381,_RNvNtNtCsgnCEBF9lLaH_4sshm6update5testss_28test_cache_data_debug_output
FN:1300,_RNvNtNtCsgnCEBF9lLaH_4sshm6update5testss_28test_cache_data_none_version
FN:1309,_RNvNtNtCsgnCEBF9lLaH_4sshm6update5testss_28test_cache_data_some_version
FN:1261,_RNvNtNtCsgnCEBF9lLaH_4sshm6update5testss_28test_cache_dir_contains_sshm
FN:939,_RNvNtNtCsgnCEBF9lLaH_4sshm6update5testss_28test_cache_directory_is_sshm
FN:317,_RNvNtNtCsgnCEBF9lLaH_4sshm6update5testss_28test_cache_duration_constant
FN:468,_RNvNtNtCsgnCEBF9lLaH_4sshm6update5testss_28test_cache_duration_in_hours
FN:775,_RNvNtNtCsgnCEBF9lLaH_4sshm6update5testss_28test_read_cache_invalid_json
FN:263,_RNvNtNtCsgnCEBF9lLaH_4sshm6update5testss_29test_cache_data_serialization
FN:603,_RNvNtNtCsgnCEBF9lLaH_4sshm6update5testss_29test_update_info_debug_format
FN:1371,_RNvNtNtCsgnCEBF9lLaH_4sshm6update5testss_29test_update_info_debug_output
FN:1278,_RNvNtNtCsgnCEBF9lLaH_4sshm6update5testss_29test_write_cache_creates_file
FN:717,_RNvNtNtCsgnCEBF9lLaH_4sshm6update5testss_29test_write_cache_with_version
FN:473,_RNvNtNtCsgnCEBF9lLaH_4sshm6update5testss_30test_cache_duration_in_minutes
FN:1240,_RNvNtNtCsgnCEBF9lLaH_4sshm6update5testss_30test_update_info_struct_fields
FN:1250,_RNvNtNtCsgnCEBF9lLaH_4sshm6update5testss_31test_cache_duration_is_24_hours
FN:1255,_RNvNtNtCsgnCEBF9lLaH_4sshm6update5testss_31test_cache_file_name_is_correct
FN:478,_RNvNtNtCsgnCEBF9lLaH_4sshm6update5testss_31test_platform_asset_name_format
FN:544,_RNvNtNtCsgnCEBF9lLaH_4sshm6update5testss_31test_update_result_all_variants
FN:596,_RNvNtNtCsgnCEBF9lLaH_4sshm6update5testss_31test_update_result_debug_format
FN:1364,_RNvNtNtCsgnCEBF9lLaH_4sshm6update5testss_31test_update_result_debug_output
FN:1290,_RNvNtNtCsgnCEBF9lLaH_4sshm6update5testss_32test_cache_data_has_correct_type
FN:843,_RNvNtNtCsgnCEBF9lLaH_4sshm6update5testss_32test_cache_data_new_version_none
FN:852,_RNvNtNtCsgnCEBF9lLaH_4sshm6update5testss_32test_cache_data_new_version_some
FN:1418,_RNvNtNtCsgnCEBF9lLaH_4sshm6update5testss_32test_cache_data_timestamp_is_u64
FN:897,_RNvNtNtCsgnCEBF9lLaH_4sshm6update5testss_32test_cache_path_is_in_config_dir
FN:489,_RNvNtNtCsgnCEBF9lLaH_4sshm6update5testss_32test_check_for_update_cache_path
FN:424,_RNvNtNtCsgnCEBF9lLaH_4sshm6update5testss_32test_update_result_error_variant
FN:734,_RNvNtNtCsgnCEBF9lLaH_4sshm6update5testss_32test_write_cache_without_version
FN:1391,_RNvNtNtCsgnCEBF9lLaH_4sshm6update5testss_33test_cache_operations_result_type
FN:1162,_RNvNtNtCsgnCEBF9lLaH_4sshm6update5testss_33test_get_cache_dir_error_handling
FN:239,_RNvNtNtCsgnCEBF9lLaH_4sshm6update5testss_33test_should_check_update_no_cache
FN:933,_RNvNtNtCsgnCEBF9lLaH_4sshm6update5testss_34test_cache_file_has_json_extension
FN:245,_RNvNtNtCsgnCEBF9lLaH_4sshm6update5testss_34test_get_platform_asset_name_linux
FN:1353,_RNvNtNtCsgnCEBF9lLaH_4sshm6update5testss_36test_cache_data_clone_preserves_data
FN:1046,_RNvNtNtCsgnCEBF9lLaH_4sshm6update5testss_36test_check_for_update_returns_result
FN:829,_RNvNtNtCsgnCEBF9lLaH_4sshm6update5testss_36test_get_platform_asset_name_windows
FN:1207,_RNvNtNtCsgnCEBF9lLaH_4sshm6update5testss_36test_update_result_no_update_variant
FN:861,_RNvNtNtCsgnCEBF9lLaH_4sshm6update5testss_36test_write_cache_overwrites_existing
FN:634,_RNvNtNtCsgnCEBF9lLaH_4sshm6update5testss_37test_cache_file_path_has_correct_name
FN:877,_RNvNtNtCsgnCEBF9lLaH_4sshm6update5testss_37test_cache_timestamp_updates_on_write
FN:1318,_RNvNtNtCsgnCEBF9lLaH_4sshm6update5testss_37test_platform_asset_name_is_lowercase
FN:1342,_RNvNtNtCsgnCEBF9lLaH_4sshm6update5testss_37test_update_info_clone_preserves_data
FN:1436,_RNvNtNtCsgnCEBF9lLaH_4sshm6update5testss_37test_update_result_all_variants_match
FN:1021,_RNvNtNtCsgnCEBF9lLaH_4sshm6update5testss_38test_check_for_update_with_empty_cache
FN:815,_RNvNtNtCsgnCEBF9lLaH_4sshm6update5testss_38test_get_platform_asset_name_macos_arm
FN:670,_RNvNtNtCsgnCEBF9lLaH_4sshm6update5testss_38test_should_check_update_cache_expired
FN:905,_RNvNtNtCsgnCEBF9lLaH_4sshm6update5testss_39test_cache_data_serialization_roundtrip
FN:531,_RNvNtNtCsgnCEBF9lLaH_4sshm6update5testss_39test_should_check_update_error_handling
FN:1328,_RNvNtNtCsgnCEBF9lLaH_4sshm6update5testss_39test_update_result_clone_preserves_data
FN:919,_RNvNtNtCsgnCEBF9lLaH_4sshm6update5testss_40test_cache_data_serialization_no_version
FN:1427,_RNvNtNtCsgnCEBF9lLaH_4sshm6update5testss_40test_cache_data_version_is_option_string
FN:1103,_RNvNtNtCsgnCEBF9lLaH_4sshm6update5testss_40test_check_for_update_cache_read_success
FN:975,_RNvNtNtCsgnCEBF9lLaH_4sshm6update5testss_40test_check_for_update_with_cached_update
FN:538,_RNvNtNtCsgnCEBF9lLaH_4sshm6update5testss_40test_get_platform_asset_name_result_type
FN:648,_RNvNtNtCsgnCEBF9lLaH_4sshm6update5testss_40test_get_platform_asset_name_unsupported
FN:1229,_RNvNtNtCsgnCEBF9lLaH_4sshm6update5testss_40test_update_result_error_variant_message
FN:787,_RNvNtNtCsgnCEBF9lLaH_4sshm6update5testss_41test_get_platform_asset_name_linux_x86_64
FN:801,_RNvNtNtCsgnCEBF9lLaH_4sshm6update5testss_41test_get_platform_asset_name_macos_x86_64
FN:1034,_RNvNtNtCsgnCEBF9lLaH_4sshm6update5testss_42test_force_check_for_update_returns_result
FN:386,_RNvNtNtCsgnCEBF9lLaH_4sshm6update5testss_42test_get_platform_asset_name_all_platforms
FN:693,_RNvNtNtCsgnCEBF9lLaH_4sshm6update5testss_42test_should_check_update_cache_not_expired
FN:999,_RNvNtNtCsgnCEBF9lLaH_4sshm6update5testss_43test_check_for_update_with_cached_no_update
FN:1150,_RNvNtNtCsgnCEBF9lLaH_4sshm6update5testss_43test_should_check_update_with_invalid_cache
FN:1216,_RNvNtNtCsgnCEBF9lLaH_4sshm6update5testss_43test_update_result_update_available_variant
FN:1168,_RNvNtNtCsgnCEBF9lLaH_4sshm6update5testss_44test_cache_data_debug_format_contains_fields
FN:654,_RNvNtNtCsgnCEBF9lLaH_4sshm6update5testss_44test_should_check_update_with_cargo_manifest
FN:1268,_RNvNtNtCsgnCEBF9lLaH_4sshm6update5testss_45test_read_cache_returns_none_for_missing_file
FN:1179,_RNvNtNtCsgnCEBF9lLaH_4sshm6update5testss_46test_cache_data_serialization_contains_version
FN:1116,_RNvNtNtCsgnCEBF9lLaH_4sshm6update5testss_46test_force_check_for_update_executes_full_flow
FN:1058,_RNvNtNtCsgnCEBF9lLaH_4sshm6update5testss_47test_check_for_update_with_cache_and_no_version
FN:1127,_RNvNtNtCsgnCEBF9lLaH_4sshm6update5testss_47test_check_for_update_with_valid_version_string
FN:1189,_RNvNtNtCsgnCEBF9lLaH_4sshm6update5testss_48test_cache_data_serialization_contains_timestamp
FN:1199,_RNvNtNtCsgnCEBF9lLaH_4sshm6update5testss_49test_get_platform_asset_name_returns_valid_string
FN:1076,_RNvNtNtCsgnCEBF9lLaH_4sshm6update5testss_50test_update_result_from_check_returns_correct_type
FN:1085,_RNvNtNtCsgnCEBF9lLaH_4sshm6update5testss_53test_cache_with_new_version_triggers_update_available
FNDA:0,_RNCNvNtCsgnCEBF9lLaH_4sshm6update10read_cache0B5_
FNDA:1,_RNCNvNtCsgnCEBF9lLaH_4sshm6update10read_caches_0B5_
FNDA:0,_RNCNvNtCsgnCEBF9lLaH_4sshm6update11write_cache0B5_
FNDA:0,_RNCNvNtCsgnCEBF9lLaH_4sshm6update11write_caches0_0B5_
FNDA:0,_RNCNvNtCsgnCEBF9lLaH_4sshm6update11write_caches_0B5_
FNDA:0,_RNCNvNtCsgnCEBF9lLaH_4sshm6update13get_cache_dir0B5_
FNDA:0,_RNCNvNtCsgnCEBF9lLaH_4sshm6update19should_check_update0B5_
FNDA:17,_RNvNtCsgnCEBF9lLaH_4sshm6update10read_cache
FNDA:14,_RNvNtCsgnCEBF9lLaH_4sshm6update11write_cache
FNDA:69,_RNvNtCsgnCEBF9lLaH_4sshm6update13get_cache_dir
FNDA:9,_RNvNtCsgnCEBF9lLaH_4sshm6update16check_for_update
FNDA:61,_RNvNtCsgnCEBF9lLaH_4sshm6update19get_cache_file_path
FNDA:14,_RNvNtCsgnCEBF9lLaH_4sshm6update19should_check_update
FNDA:2,_RNvNtCsgnCEBF9lLaH_4sshm6update22force_check_for_update
FNDA:13,_RNvNtCsgnCEBF9lLaH_4sshm6update23get_platform_asset_name
FNDA:25,_RNCNvNtNtCsgnCEBF9lLaH_4sshm6update5testss_31test_platform_asset_name_format0B7_
FNDA:25,_RNCNvNtNtCsgnCEBF9lLaH_4sshm6update5testss_37test_platform_asset_name_is_lowercase0B7_
FNDA:1,_RNvNtNtCsgnCEBF9lLaH_4sshm6update5testss_18test_get_cache_dir
FNDA:1,_RNvNtNtCsgnCEBF9lLaH_4sshm6update5testss_20test_cache_file_name
FNDA:1,_RNvNtNtCsgnCEBF9lLaH_4sshm6update5testss_21test_cache_data_debug
FNDA:1,_RNvNtNtCsgnCEBF9lLaH_4sshm6update5testss_22test_cache_data_fields
FNDA:1,_RNvNtNtCsgnCEBF9lLaH_4sshm6update5testss_22test_cache_data_struct
FNDA:1,_RNvNtNtCsgnCEBF9lLaH_4sshm6update5testss_22test_cache_persistence
FNDA:1,_RNvNtNtCsgnCEBF9lLaH_4sshm6update5testss_22test_update_info_clone
FNDA:1,_RNvNtNtCsgnCEBF9lLaH_4sshm6update5testss_22test_update_info_debug
FNDA:1,_RNvNtNtCsgnCEBF9lLaH_4sshm6update5testss_23test_cache_data_display
FNDA:1,_RNvNtNtCsgnCEBF9lLaH_4sshm6update5testss_23test_update_info_struct
FNDA:1,_RNvNtNtCsgnCEBF9lLaH_4sshm6update5testss_24test_get_cache_file_path
FNDA:1,_RNvNtNtCsgnCEBF9lLaH_4sshm6update5testss_24test_read_cache_no_cache
FNDA:1,_RNvNtNtCsgnCEBF9lLaH_4sshm6update5testss_24test_update_info_display
FNDA:1,_RNvNtNtCsgnCEBF9lLaH_4sshm6update5testss_24test_update_result_clone
FNDA:1,_RNvNtNtCsgnCEBF9lLaH_4sshm6update5testss_24test_update_result_debug
FNDA:1,_RNvNtNtCsgnCEBF9lLaH_4sshm6update5testss_25test_read_cache_with_data
FNDA:1,_RNvNtNtCsgnCEBF9lLaH_4sshm6update5testss_26test_cache_data_all_fields
FNDA:1,_RNvNtNtCsgnCEBF9lLaH_4sshm6update5testss_26test_cache_dir_is_absolute
FNDA:1,_RNvNtNtCsgnCEBF9lLaH_4sshm6update5testss_26test_cache_duration_values
FNDA:1,_RNvNtNtCsgnCEBF9lLaH_4sshm6update5testss_26test_cache_file_has_parent
FNDA:1,_RNvNtNtCsgnCEBF9lLaH_4sshm6update5testss_26test_cache_operation_types
FNDA:1,_RNvNtNtCsgnCEBF9lLaH_4sshm6update5testss_26test_cache_path_generation
FNDA:1,_RNvNtNtCsgnCEBF9lLaH_4sshm6update5testss_26test_update_result_display
FNDA:1,_RNvNtNtCsgnCEBF9lLaH_4sshm6update5testss_27test_cache_path_is_absolute
FNDA:1,_RNvNtNtCsgnCEBF9lLaH_4sshm6update5testss_27test_cache_read_after_write
FNDA:1,_RNvNtNtCsgnCEBF9lLaH_4sshm6update5testss_27test_get_cache_dir_is_valid
FNDA:1,_RNvNtNtCsgnCEBF9lLaH_4sshm6update5testss_27test_update_check_constants
FNDA:1,_RNvNtNtCsgnCEBF9lLaH_4sshm6update5testss_27test_update_info_all_fields
FNDA:1,_RNvNtNtCsgnCEBF9lLaH_4sshm6update5testss_27test_update_result_variants
FNDA:1,_RNvNtNtCsgnCEBF9lLaH_4sshm6update5testss_28test_cache_data_debug_format
FNDA:1,_RNvNtNtCsgnCEBF9lLaH_4sshm6update5testss_28test_cache_data_debug_output
FNDA:1,_RNvNtNtCsgnCEBF9lLaH_4sshm6update5testss_28test_cache_data_none_version
FNDA:1,_RNvNtNtCsgnCEBF9lLaH_4sshm6update5testss_28test_cache_data_some_version
FNDA:1,_RNvNtNtCsgnCEBF9lLaH_4sshm6update5testss_28test_cache_dir_contains_sshm
FNDA:1,_RNvNtNtCsgnCEBF9lLaH_4sshm6update5testss_28test_cache_directory_is_sshm
FNDA:1,_RNvNtNtCsgnCEBF9lLaH_4sshm6update5testss_28test_cache_duration_constant
FNDA:1,_RNvNtNtCsgnCEBF9lLaH_4sshm6update5testss_28test_cache_duration_in_hours
FNDA:1,_RNvNtNtCsgnCEBF9lLaH_4sshm6update5testss_28test_read_cache_invalid_json
FNDA:1,_RNvNtNtCsgnCEBF9lLaH_4sshm6update5testss_29test_cache_data_serialization
FNDA:1,_RNvNtNtCsgnCEBF9lLaH_4sshm6update5testss_29test_update_info_debug_format
FNDA:1,_RNvNtNtCsgnCEBF9lLaH_4sshm6update5testss_29test_update_info_debug_output
FNDA:1,_RNvNtNtCsgnCEBF9lLaH_4sshm6update5testss_29test_write_cache_creates_file
FNDA:1,_RNvNtNtCsgnCEBF9lLaH_4sshm6update5testss_29test_write_cache_with_version
FNDA:1,_RNvNtNtCsgnCEBF9lLaH_4sshm6update5testss_30test_cache_duration_in_minutes
FNDA:1,_RNvNtNtCsgnCEBF9lLaH_4sshm6update5testss_30test_update_info_struct_fields
FNDA:1,_RNvNtNtCsgnCEBF9lLaH_4sshm6update5testss_31test_cache_duration_is_24_hours
FNDA:1,_RNvNtNtCsgnCEBF9lLaH_4sshm6update5testss_31test_cache_file_name_is_correct
FNDA:1,_RNvNtNtCsgnCEBF9lLaH_4sshm6update5testss_31test_platform_asset_name_format
FNDA:1,_RNvNtNtCsgnCEBF9lLaH_4sshm6update5testss_31test_update_result_all_variants
FNDA:1,_RNvNtNtCsgnCEBF9lLaH_4sshm6update5testss_31test_update_result_debug_format
FNDA:1,_RNvNtNtCsgnCEBF9lLaH_4sshm6update5testss_31test_update_result_debug_output
FNDA:1,_RNvNtNtCsgnCEBF9lLaH_4sshm6update5testss_32test_cache_data_has_correct_type
FNDA:1,_RNvNtNtCsgnCEBF9lLaH_4sshm6update5testss_32test_cache_data_new_version_none
FNDA:1,_RNvNtNtCsgnCEBF9lLaH_4sshm6update5testss_32test_cache_data_new_version_some
FNDA:1,_RNvNtNtCsgnCEBF9lLaH_4sshm6update5testss_32test_cache_data_timestamp_is_u64
FNDA:1,_RNvNtNtCsgnCEBF9lLaH_4sshm6update5testss_32test_cache_path_is_in_config_dir
FNDA:1,_RNvNtNtCsgnCEBF9lLaH_4sshm6update5testss_32test_check_for_update_cache_path
FNDA:1,_RNvNtNtCsgnCEBF9lLaH_4sshm6update5testss_32test_update_result_error_variant
FNDA:1,_RNvNtNtCsgnCEBF9lLaH_4sshm6update5testss_32test_write_cache_without_version
FNDA:1,_RNvNtNtCsgnCEBF9lLaH_4sshm6update5testss_33test_cache_operations_result_type
FNDA:1,_RNvNtNtCsgnCEBF9lLaH_4sshm6update5testss_33test_get_cache_dir_error_handling
FNDA:1,_RNvNtNtCsgnCEBF9lLaH_4sshm6update5testss_33test_should_check_update_no_cache
FNDA:1,_RNvNtNtCsgnCEBF9lLaH_4sshm6update5testss_34test_cache_file_has_json_extension
FNDA:1,_RNvNtNtCsgnCEBF9lLaH_4sshm6update5testss_34test_get_platform_asset_name_linux
FNDA:1,_RNvNtNtCsgnCEBF9lLaH_4sshm6update5testss_36test_cache_data_clone_preserves_data
FNDA:1,_RNvNtNtCsgnCEBF9lLaH_4sshm6update5testss_36test_check_for_update_returns_result
FNDA:1,_RNvNtNtCsgnCEBF9lLaH_4sshm6update5testss_36test_get_platform_asset_name_windows
FNDA:1,_RNvNtNtCsgnCEBF9lLaH_4sshm6update5testss_36test_update_result_no_update_variant
FNDA:1,_RNvNtNtCsgnCEBF9lLaH_4sshm6update5testss_36test_write_cache_overwrites_existing
FNDA:1,_RNvNtNtCsgnCEBF9lLaH_4sshm6update5testss_37test_cache_file_path_has_correct_name
FNDA:1,_RNvNtNtCsgnCEBF9lLaH_4sshm6update5testss_37test_cache_timestamp_updates_on_write
FNDA:1,_RNvNtNtCsgnCEBF9lLaH_4sshm6update5testss_37test_platform_asset_name_is_lowercase
FNDA:1,_RNvNtNtCsgnCEBF9lLaH_4sshm6update5testss_37test_update_info_clone_preserves_data
FNDA:1,_RNvNtNtCsgnCEBF9lLaH_4sshm6update5testss_37test_update_result_all_variants_match
FNDA:1,_RNvNtNtCsgnCEBF9lLaH_4sshm6update5testss_38test_check_for_update_with_empty_cache
FNDA:1,_RNvNtNtCsgnCEBF9lLaH_4sshm6update5testss_38test_get_platform_asset_name_macos_arm
FNDA:1,_RNvNtNtCsgnCEBF9lLaH_4sshm6update5testss_38test_should_check_update_cache_expired
FNDA:1,_RNvNtNtCsgnCEBF9lLaH_4sshm6update5testss_39test_cache_data_serialization_roundtrip
FNDA:1,_RNvNtNtCsgnCEBF9lLaH_4sshm6update5testss_39test_should_check_update_error_handling
FNDA:1,_RNvNtNtCsgnCEBF9lLaH_4sshm6update5testss_39test_update_result_clone_preserves_data
FNDA:1,_RNvNtNtCsgnCEBF9lLaH_4sshm6update5testss_40test_cache_data_serialization_no_version
FNDA:1,_RNvNtNtCsgnCEBF9lLaH_4sshm6update5testss_40test_cache_data_version_is_option_string
FNDA:1,_RNvNtNtCsgnCEBF9lLaH_4sshm6update5testss_40test_check_for_update_cache_read_success
FNDA:1,_RNvNtNtCsgnCEBF9lLaH_4sshm6update5testss_40test_check_for_update_with_cached_update
FNDA:1,_RNvNtNtCsgnCEBF9lLaH_4sshm6update5testss_40test_get_platform_asset_name_result_type
FNDA:1,_RNvNtNtCsgnCEBF9lLaH_4sshm6update5testss_40test_get_platform_asset_name_unsupported
FNDA:1,_RNvNtNtCsgnCEBF9lLaH_4sshm6update5testss_40test_update_result_error_variant_message
FNDA:1,_RNvNtNtCsgnCEBF9lLaH_4sshm6update5testss_41test_get_platform_asset_name_linux_x86_64
FNDA:1,_RNvNtNtCsgnCEBF9lLaH_4sshm6update5testss_41test_get_platform_asset_name_macos_x86_64
FNDA:1,_RNvNtNtCsgnCEBF9lLaH_4sshm6update5testss_42test_force_check_for_update_returns_result
FNDA:1,_RNvNtNtCsgnCEBF9lLaH_4sshm6update5testss_42test_get_platform_asset_name_all_platforms
FNDA:1,_RNvNtNtCsgnCEBF9lLaH_4sshm6update5testss_42test_should_check_update_cache_not_expired
FNDA:1,_RNvNtNtCsgnCEBF9lLaH_4sshm6update5testss_43test_check_for_update_with_cached_no_update
FNDA:1,_RNvNtNtCsgnCEBF9lLaH_4sshm6update5testss_43test_should_check_update_with_invalid_cache
FNDA:1,_RNvNtNtCsgnCEBF9lLaH_4sshm6update5testss_43test_update_result_update_available_variant
FNDA:1,_RNvNtNtCsgnCEBF9lLaH_4sshm6update5testss_44test_cache_data_debug_format_contains_fields
FNDA:1,_RNvNtNtCsgnCEBF9lLaH_4sshm6update5testss_44test_should_check_update_with_cargo_manifest
FNDA:1,_RNvNtNtCsgnCEBF9lLaH_4sshm6update5testss_45test_read_cache_returns_none_for_missing_file
FNDA:1,_RNvNtNtCsgnCEBF9lLaH_4sshm6update5testss_46test_cache_data_serialization_contains_version
FNDA:1,_RNvNtNtCsgnCEBF9lLaH_4sshm6update5testss_46test_force_check_for_update_executes_full_flow
FNDA:1,_RNvNtNtCsgnCEBF9lLaH_4sshm6update5testss_47test_check_for_update_with_cache_and_no_version
FNDA:1,_RNvNtNtCsgnCEBF9lLaH_4sshm6update5testss_47test_check_for_update_with_valid_version_string
FNDA:1,_RNvNtNtCsgnCEBF9lLaH_4sshm6update5testss_48test_cache_data_serialization_contains_timestamp
FNDA:1,_RNvNtNtCsgnCEBF9lLaH_4sshm6update5testss_49test_get_platform_asset_name_returns_valid_string
FNDA:1,_RNvNtNtCsgnCEBF9lLaH_4sshm6update5testss_50test_update_result_from_check_returns_correct_type
FNDA:1,_RNvNtNtCsgnCEBF9lLaH_4sshm6update5testss_53test_cache_with_new_version_triggers_update_available
FNF:123
FNH:117
DA:22,69
DA:23,69
DA:24,69
DA:25,69
DA:27,69
DA:28,69
DA:30,69
DA:31,69
DA:33,61
DA:34,61
DA:35,61
DA:43,17
DA:44,17
DA:46,17
DA:47,5
DA:48,12
DA:50,12
DA:51,12
DA:53,11
DA:54,12
DA:56,11
DA:57,17
DA:59,14
DA:60,14
DA:61,14
DA:62,14
DA:63,14
DA:64,14
DA:66,14
DA:67,14
DA:68,14
DA:69,14
DA:71,14
DA:72,14
DA:74,14
DA:76,14
DA:77,14
DA:79,14
DA:81,14
DA:82,14
DA:83,0
DA:85,0
DA:87,0
DA:88,0
DA:89,0
DA:90,0
DA:91,0
DA:92,0
DA:93,0
DA:95,0
DA:98,14
DA:100,13
DA:101,13
DA:102,13
DA:104,13
DA:105,13
DA:106,0
DA:107,0
DA:108,0
DA:109,0
DA:112,13
DA:113,13
DA:115,9
DA:116,9
DA:119,9
DA:122,9
DA:123,6
DA:124,6
DA:125,4
DA:126,4
DA:127,4
DA:128,2
DA:129,2
DA:131,3
DA:134,0
DA:135,0
DA:136,0
DA:137,0
DA:141,0
DA:142,0
DA:143,0
DA:144,0
DA:145,0
DA:149,0
DA:150,0
DA:151,0
DA:152,0
DA:153,0
DA:154,0
DA:155,0
DA:157,0
DA:158,0
DA:159,0
DA:160,0
DA:164,0
DA:165,0
DA:166,0
DA:167,0
DA:168,0
DA:172,0
DA:174,0
DA:175,0
DA:177,0
DA:178,0
DA:179,0
DA:180,0
DA:181,0
DA:184,9
DA:186,2
DA:187,2
DA:189,2
DA:190,2
DA:191,0
DA:192,0
DA:193,0
DA:197,2
DA:198,2
DA:199,2
DA:200,2
DA:201,2
DA:202,2
DA:203,2
DA:205,2
DA:206,0
DA:207,0
DA:208,0
DA:212,2
DA:213,0
DA:214,2
DA:215,2
DA:216,2
DA:220,0
DA:222,0
DA:223,0
DA:225,0
DA:226,0
DA:227,0
DA:228,0
DA:229,0
DA:232,2
DA:239,1
DA:240,1
DA:241,1
DA:242,1
DA:245,1
DA:247,1
DA:248,1
DA:249,1
DA:250,1
DA:253,1
DA:254,1
DA:255,1
DA:256,1
DA:257,1
DA:258,1
DA:259,1
DA:260,1
DA:263,1
DA:264,1
DA:265,1
DA:266,1
DA:267,1
DA:269,1
DA:270,1
DA:272,1
DA:273,1
DA:274,1
DA:275,1
DA:278,1
DA:279,1
DA:280,1
DA:281,1
DA:282,1
DA:283,1
DA:285,1
DA:286,1
DA:287,0
DA:290,1
DA:291,1
DA:292,1
DA:294,0
DA:297,1
DA:298,1
DA:299,1
DA:301,0
DA:303,1
DA:306,1
DA:307,1
DA:308,1
DA:309,1
DA:310,1
DA:312,1
DA:313,1
DA:314,1
DA:317,1
DA:318,1
DA:319,1
DA:322,1
DA:323,1
DA:324,1
DA:325,1
DA:326,1
DA:327,1
DA:330,1
DA:331,1
DA:332,1
DA:333,1
DA:334,1
DA:335,1
DA:336,1
DA:339,1
DA:341,1
DA:342,1
DA:343,1
DA:344,0
DA:345,1
DA:347,1
DA:348,1
DA:349,1
DA:352,1
DA:353,0
DA:354,1
DA:355,1
DA:358,1
DA:359,1
DA:360,1
DA:362,1
DA:363,1
DA:364,1
DA:365,1
DA:366,1
DA:369,1
DA:370,1
DA:371,1
DA:372,1
DA:373,1
DA:374,1
DA:375,1
DA:376,1
DA:379,1
DA:381,1
DA:382,1
DA:383,1
DA:386,1
DA:388,1
DA:389,1
DA:390,1
DA:391,1
DA:394,1
DA:395,1
DA:396,1
DA:397,1
DA:398,0
DA:399,0
DA:400,0
DA:401,0
DA:402,0
DA:403,1
DA:406,1
DA:407,1
DA:408,1
DA:409,1
DA:410,1
DA:413,1
DA:414,1
DA:415,1
DA:416,1
DA:417,1
DA:418,1
DA:419,1
DA:420,1
DA:421,1
DA:424,1
DA:425,1
DA:426,1
DA:427,1
DA:428,0
DA:430,1
DA:433,1
DA:434,1
DA:435,1
DA:436,1
DA:437,1
DA:438,1
DA:439,1
DA:440,1
DA:442,0
DA:444,1
DA:447,1
DA:448,1
DA:449,1
DA:450,1
DA:451,1
DA:452,1
DA:453,1
DA:454,1
DA:455,1
DA:458,1
DA:459,1
DA:460,1
DA:461,1
DA:462,1
DA:463,1
DA:464,1
DA:465,1
DA:468,1
DA:469,1
DA:470,1
DA:473,1
DA:474,1
DA:475,1
DA:478,1
DA:479,1
DA:480,1
DA:481,1
DA:483,1
DA:484,1
DA:485,25
DA:486,1
DA:489,1
DA:491,1
DA:492,1
DA:493,1
DA:496,1
DA:497,1
DA:498,1
DA:499,1
DA:500,1
DA:501,1
DA:504,1
DA:505,1
DA:506,1
DA:507,1
DA:508,1
DA:511,1
DA:512,1
DA:513,1
DA:514,1
DA:515,1
DA:516,1
DA:517,1
DA:518,1
DA:521,1
DA:522,1
DA:523,1
DA:524,1
DA:525,1
DA:526,1
DA:527,1
DA:528,1
DA:531,1
DA:533,1
DA:534,1
DA:535,1
DA:538,1
DA:539,1
DA:540,1
DA:541,1
DA:544,1
DA:545,1
DA:546,1
DA:547,1
DA:548,1
DA:549,1
DA:551,1
DA:552,1
DA:553,0
DA:555,1
DA:556,1
DA:557,0
DA:559,1
DA:560,1
DA:561,0
DA:563,1
DA:566,1
DA:567,1
DA:568,1
DA:569,1
DA:570,1
DA:571,1
DA:572,1
DA:573,1
DA:576,1
DA:577,1
DA:578,1
DA:579,1
DA:580,1
DA:581,1
DA:582,1
DA:583,1
DA:586,1
DA:588,1
DA:590,1
DA:592,1
DA:593,1
DA:596,1
DA:597,1
DA:598,1
DA:599,1
DA:600,1
DA:603,1
DA:604,1
DA:605,1
DA:606,1
DA:607,1
DA:608,1
DA:609,1
DA:610,1
DA:611,1
DA:614,1
DA:615,1
DA:616,1
DA:617,1
DA:618,1
DA:619,1
DA:620,1
DA:621,1
DA:624,1
DA:626,1
DA:627,1
DA:629,1
DA:630,1
DA:631,1
DA:634,1
DA:635,1
DA:636,1
DA:637,1
DA:640,1
DA:641,1
DA:642,1
DA:643,1
DA:644,1
DA:645,1
DA:648,1
DA:649,1
DA:650,1
DA:651,1
DA:654,1
DA:655,1
DA:656,1
DA:658,1
DA:659,1
DA:660,1
DA:662,1
DA:663,1
DA:664,1
DA:665,0
DA:666,0
DA:667,1
DA:670,1
DA:672,1
DA:673,1
DA:674,1
DA:675,1
DA:677,1
DA:678,1
DA:679,1
DA:680,1
DA:683,1
DA:684,1
DA:685,1
DA:686,1
DA:687,1
DA:689,1
DA:690,1
DA:693,1
DA:694,1
DA:695,1
DA:696,1
DA:697,1
DA:699,1
DA:700,1
DA:701,1
DA:702,1
DA:704,1
DA:705,1
DA:706,1
DA:707,1
DA:709,1
DA:710,1
DA:711,1
DA:713,1
DA:714,1
DA:717,1
DA:718,1
DA:719,1
DA:721,1
DA:722,1
DA:724,1
DA:726,1
DA:727,1
DA:728,1
DA:730,1
DA:731,1
DA:734,1
DA:735,1
DA:736,1
DA:738,1
DA:739,1
DA:741,1
DA:743,1
DA:744,1
DA:745,1
DA:747,1
DA:748,1
DA:751,1
DA:752,1
DA:753,1
DA:754,1
DA:755,1
DA:757,1
DA:758,1
DA:759,1
DA:760,1
DA:762,1
DA:763,1
DA:764,1
DA:765,1
DA:767,1
DA:768,1
DA:769,1
DA:771,1
DA:772,1
DA:775,1
DA:776,1
DA:777,1
DA:778,1
DA:780,1
DA:781,1
DA:783,1
DA:784,1
DA:787,1
DA:788,1
DA:789,1
DA:790,1
DA:792,1
DA:793,1
DA:795,1
DA:796,1
DA:797,0
DA:798,1
DA:801,1
DA:802,1
DA:803,1
DA:804,1
DA:806,1
DA:807,1
DA:809,1
DA:810,0
DA:811,1
DA:812,1
DA:815,1
DA:816,1
DA:817,1
DA:818,1
DA:820,1
DA:821,1
DA:823,1
DA:824,0
DA:825,1
DA:826,1
DA:829,1
DA:830,1
DA:831,1
DA:832,1
DA:834,1
DA:835,1
DA:837,1
DA:838,0
DA:839,1
DA:840,1
DA:843,1
DA:844,1
DA:845,1
DA:846,1
DA:847,1
DA:848,1
DA:849,1
DA:852,1
DA:853,1
DA:854,1
DA:855,1
DA:856,1
DA:857,1
DA:858,1
DA:861,1
DA:862,1
DA:863,1
DA:865,1
DA:866,1
DA:868,1
DA:869,1
DA:871,1
DA:873,1
DA:874,1
DA:877,1
DA:878,1
DA:879,1
DA:881,1
DA:882,1
DA:883,1
DA:885,1
DA:887,1
DA:888,1
DA:889,1
DA:891,1
DA:893,1
DA:894,1
DA:897,1
DA:898,1
DA:899,1
DA:901,1
DA:902,1
DA:905,1
DA:906,1
DA:907,1
DA:908,1
DA:909,1
DA:911,1
DA:912,1
DA:914,1
DA:915,1
DA:916,1
DA:919,1
DA:920,1
DA:921,1
DA:922,1
DA:923,1
DA:925,1
DA:926,1
DA:928,1
DA:929,1
DA:930,1
DA:933,1
DA:934,1
DA:935,1
DA:936,1
DA:939,1
DA:940,1
DA:941,1
DA:942,1
DA:945,1
DA:946,1
DA:947,1
DA:949,1
DA:950,1
DA:952,1
DA:953,1
DA:954,1
DA:956,1
DA:957,1
DA:960,1
DA:961,1
DA:962,1
DA:964,1
DA:966,1
DA:968,1
DA:969,1
DA:971,1
DA:972,1
DA:975,1
DA:976,1
DA:977,1
DA:979,1
DA:980,1
DA:981,1
DA:982,1
DA:983,1
DA:984,1
DA:986,1
DA:988,1
DA:989,1
DA:990,1
DA:992,0
DA:995,1
DA:996,1
DA:999,1
DA:1000,1
DA:1001,1
DA:1003,1
DA:1004,1
DA:1005,1
DA:1006,1
DA:1007,1
DA:1008,1
DA:1010,1
DA:1012,1
DA:1013,1
DA:1014,0
DA:1017,1
DA:1018,1
DA:1021,1
DA:1022,1
DA:1023,1
DA:1025,1
DA:1027,1
DA:1028,1
DA:1029,0
DA:1031,1
DA:1034,1
DA:1035,1
DA:1037,1
DA:1038,0
DA:1039,1
DA:1040,1
DA:1043,1
DA:1046,1
DA:1047,1
DA:1049,1
DA:1050,1
DA:1051,0
DA:1052,0
DA:1055,1
DA:1058,1
DA:1059,1
DA:1060,1
DA:1062,1
DA:1063,1
DA:1064,1
DA:1065,1
DA:1066,1
DA:1067,1
DA:1069,1
DA:1070,1
DA:1072,1
DA:1073,1
DA:1076,1
DA:1077,1
DA:1078,1
DA:1079,1
DA:1082,1
DA:1085,1
DA:1086,1
DA:1087,1
DA:1089,1
DA:1090,1
DA:1091,1
DA:1092,1
DA:1093,1
DA:1094,1
DA:1096,1
DA:1097,1
DA:1099,1
DA:1100,1
DA:1103,1
DA:1104,1
DA:1105,1
DA:1107,1
DA:1109,1
DA:1110,1
DA:1112,1
DA:1113,1
DA:1116,1
DA:1117,1
DA:1119,1
DA:1120,1
DA:1121,1
DA:1122,1
DA:1124,1
DA:1127,1
DA:1128,1
DA:1129,1
DA:1131,1
DA:1132,1
DA:1133,1
DA:1134,1
DA:1135,1
DA:1136,1
DA:1138,1
DA:1139,1
DA:1140,1
DA:1141,1
DA:1143,0
DA:1146,1
DA:1147,1
DA:1150,1
DA:1151,1
DA:1152,1
DA:1153,1
DA:1155,1
DA:1156,1
DA:1158,1
DA:1159,1
DA:1162,1
DA:1163,1
DA:1164,1
DA:1165,1
DA:1168,1
DA:1169,1
DA:1170,1
DA:1171,1
DA:1172,1
DA:1173,1
DA:1174,1
DA:1175,1
DA:1176,1
DA:1179,1
DA:1180,1
DA:1181,1
DA:1182,1
DA:1183,1
DA:1184,1
DA:1185,1
DA:1186,1
DA:1189,1
DA:1190,1
DA:1191,1
DA:1192,1
DA:1193,1
DA:1194,1
DA:1195,1
DA:1196,1
DA:1199,1
DA:1200,1
DA:1201,1
DA:1202,1
DA:1203,1
DA:1204,1
DA:1207,1
DA:1208,1
DA:1209,1
DA:1210,1
DA:1211,0
DA:1213,1
DA:1216,1
DA:1217,1
DA:1218,1
DA:1219,1
DA:1220,1
DA:1221,1
DA:1222,1
DA:1224,0
DA:1226,1
DA:1229,1
DA:1230,1
DA:1231,1
DA:1232,1
DA:1233,1
DA:1235,0
DA:1237,1
DA:1240,1
DA:1241,1
DA:1242,1
DA:1243,1
DA:1244,1
DA:1245,1
DA:1246,1
DA:1247,1
DA:1250,1
DA:1251,1
DA:1252,1
DA:1255,1
DA:1256,1
DA:1257,1
DA:1258,1
DA:1261,1
DA:1262,1
DA:1263,1
DA:1264,1
DA:1265,1
DA:1268,1
DA:1269,1
DA:1270,1
DA:1272,1
DA:1273,1
DA:1274,1
DA:1275,1
DA:1278,1
DA:1279,1
DA:1280,1
DA:1282,1
DA:1283,1
DA:1284,1
DA:1286,1
DA:1287,1
DA:1290,1
DA:1291,1
DA:1292,1
DA:1293,1
DA:1294,1
DA:1295,1
DA:1296,1
DA:1297,1
DA:1300,1
DA:1301,1
DA:1302,1
DA:1303,1
DA:1304,1
DA:1305,1
DA:1306,1
DA:1309,1
DA:1310,1
DA:1311,1
DA:1312,1
DA:1313,1
DA:1314,1
DA:1315,1
DA:1318,1
DA:1319,1
DA:1320,1
DA:1321,1
DA:1322,1
DA:1323,1
DA:1324,25
DA:1325,1
DA:1328,1
DA:1329,1
DA:1330,1
DA:1331,1
DA:1332,1
DA:1333,1
DA:1334,1
DA:1335,1
DA:1337,0
DA:1339,1
DA:1342,1
DA:1343,1
DA:1344,1
DA:1345,1
DA:1346,1
DA:1347,1
DA:1348,1
DA:1349,1
DA:1350,1
DA:1353,1
DA:1354,1
DA:1355,1
DA:1356,1
DA:1357,1
DA:1358,1
DA:1359,1
DA:1360,1
DA:1361,1
DA:1364,1
DA:1365,1
DA:1366,1
DA:1367,1
DA:1368,1
DA:1371,1
DA:1372,1
DA:1373,1
DA:1374,1
DA:1375,1
DA:1376,1
DA:1377,1
DA:1378,1
DA:1381,1
DA:1382,1
DA:1383,1
DA:1384,1
DA:1385,1
DA:1386,1
DA:1387,1
DA:1388,1
DA:1391,1
DA:1392,1
DA:1393,1
DA:1395,1
DA:1396,1
DA:1397,1
DA:1400,1
DA:1401,1
DA:1402,1
DA:1403,1
DA:1406,1
DA:1407,1
DA:1408,1
DA:1409,1
DA:1412,1
DA:1413,1
DA:1414,1
DA:1415,1
DA:1418,1
DA:1419,1
DA:1420,1
DA:1421,1
DA:1422,1
DA:1423,1
DA:1424,1
DA:1427,1
DA:1428,1
DA:1429,1
DA:1430,1
DA:1431,1
DA:1432,1
DA:1433,1
DA:1436,1
DA:1437,1
DA:1438,1
DA:1439,1
DA:1440,1
DA:1441,1
DA:1443,1
DA:1444,1
DA:1445,0
DA:1447,1
DA:1448,1
DA:1449,0
DA:1451,1
DA:1452,1
DA:1453,0
DA:1455,1
BRF:0
BRH:0
LF:1011
LH:908
end_of_record